(i__main__
Tr
p1
(dp2
S'mechWear'
p3
F7066.5308356675259
sS'nextGRD'
p4
(lp5
S'0.8'
p6
aS'0.0'
p7
asS'STAcnt'
p8
I1
sS'maxSquareSpeed'
p9
F6400
sS'consumptionCutOff'
p10
F1
sS'grade'
p11
F0
sS'nGRDx'
p12
F800
sS'admissionWear'
p13
F6000
sS'transitionGRDx'
p14
F290
sS'coasting'
p15
I00
sS'BDzero'
p16
F172.03258234461106
sS'redisSIG'
p17
S'sig:WestboundMain:ChV+10'
p18
sS'maxTIV'
p19
F70
sS'CRVcnt'
p20
I0
sS'nCRVx'
p21
I9223372036854775807
sS'nTIVvl'
p22
F45
sS'trip'
p23
I0
sS'pathCnt'
p24
I-1
sS'TIVcnt'
p25
I3
sS'waitSta'
p26
F0
sS'v'
F18.838631350808619
sS'pax'
p27
I698
sS'startingPhase'
p28
I00
sS'advTIV'
p29
F-1
sS'vK'
p30
F67.819072862911028
sS'nextCRV'
p31
(lp32
S'0.0'
p33
aS'0.0'
p34
asS'cv'
p35
F19.444444444444443
sS'nTIVx'
p36
F2200
sS'sigBrake'
p37
I00
sS'sigSpotted'
p38
I00
sS'inSta'
p39
I00
sS'transitionCRVx'
p40
I9223372036854775807
sS'advSIGcol'
p41
S'green'
p42
sS'aGaussFactor'
p43
F-0.0025916024868065627
sS'PK'
p44
F0.56332654178337471
sS'deltaBDtiv'
p45
F151.25210437710433
sS'nSIGx'
p46
F1012
sS'nTIVtype'
p47
S'DEC'
p48
sS'a'
F0.19306124998786109
sS'ratioGRD'
p49
F0.0029334672225634979
sS'power'
p50
F747344.11657861318
sS'gradient'
p51
F-0.0069999999999999993
sS'BDsta'
p52
F0
sS'initSwitchSeg'
p53
I00
sS'BDtiv'
p54
F151.25210437710433
sS'staBrake'
p55
I00
sS'aFull'
p56
F0.26173124998786107
sS'segment'
p57
S'WestboundMain'
p58
sS'name'
p59
S'E500'
p60
sS'nextSTA'
p61
(lp62
S'1.152'
p63
aS'Ber'
p64
aS'Berault'
p65
asS'atSig'
p66
I00
sS'deltaBDsta'
p67
F0
sS'tgtVk'
p68
F80
sS'SIGcnt'
p69
I5
sS'pathBranch'
p70
S''
sS'oldGradient'
p71
F0
sS'critVk'
p72
F0
sS'm'
F195350
sS'GRDcnt'
p73
I2
sS'nextTIV'
p74
(lp75
S'2.2'
p76
aS'45'
p77
asS'nv'
p78
F12.5
sS'maxVk'
p79
F70
sS'nSTAx'
p80
F1152
sS'DBrt'
p81
F0
sS'x'
F563.32654178337475
sS'trs'
p82
(lp83
(i__main__
Tr
p84
(dp85
g3
F2800.0007237334439
sg4
(lp86
S'1.9'
p87
aS'-0.4'
p88
asg8
I3
sg9
F6400
sg10
F1
sg11
F0
sg12
F1900
sg13
F6000
sg14
F1870
sg15
I00
sg16
F0
sg17
S'sig:WestboundMain:StM-140'
p89
sg19
F70
sg20
I0
sg21
I9223372036854775807
sg22
F45
sg23
I0
sg24
I-1
sg25
I3
sg26
F32.314999999999998
sS'v'
F0
sg27
I698
sg28
I01
sg29
F-1
sg30
F0
sg31
g32
sg35
F19.444444444444443
sg36
F2200
sg37
I00
sg38
I00
sg39
I01
sg40
I9223372036854775807
sg41
S'green'
p90
sg43
F0.00087850352330602654
sg44
F1.8810000361866706
sg45
F151.25210437710433
sg46
F1891
sg47
g48
sS'a'
F0
sg49
F0.0006899017564289049
sg50
F0
sg51
F0
sg52
F0
sg53
I00
sg54
F151.25210437710433
sg55
I00
sg56
F0
sg57
S'WestboundMain'
p91
sg59
S'E502'
p92
sg61
(lp93
S'2.375'
p94
aS'PoV'
p95
aS'Porte-De-Vincennes'
p96
asg66
I00
sg67
F0
sg68
F80
sg69
I9
sg70
S''
sg71
F0.02
sg72
F0
sS'm'
F195350
sg73
I7
sg74
g75
sg78
F12.5
sg79
F70
sg80
F2375
sg81
F0
sS'x'
F1881.0000361866705
sg82
(lp97
sS'cTIVvl'
p98
F70
sS'nextSIG'
p99
(lp100
S'1.891'
p101
aS'StM+10'
p102
aS'1'
asS'brakeWear'
p103
F2491.3900000000554
sba(i__main__
Tr
p104
(dp105
g3
F2800.0041273957991
sg4
(lp106
S'3.1'
p107
aS'0.1'
p108
asg8
I4
sg9
F6400
sg10
F1
sg11
F-0.40000000000000002
sg12
F3100
sg13
F6000
sg14
F2340
sg15
I00
sg16
F0
sg17
S'sig:WestboundMain:PoV-140'
p109
sg19
F45
sg20
I0
sg21
I9223372036854775807
sg22
F30
sg23
I0
sg24
I-1
sg25
I4
sg26
F32.265000000000001
sS'v'
F0
sg27
I698
sg28
I01
sg29
F-1
sg30
F0
sg31
g32
sg35
F12.5
sg36
F3200
sg37
I00
sg38
I00
sg39
I01
sg40
I9223372036854775807
sg41
S'green'
p110
sg43
F-0.0035366183986898702
sg44
F2.3750002063697844
sg45
F59.185606060606048
sg46
F2385
sg47
g48
sS'a'
F0
sg49
F0.0019068772585796978
sg50
F0
sg51
F0
sg52
F0
sg53
I00
sg54
F59.185606060606048
sg55
I00
sg56
F0
sg57
S'WestboundMain'
p111
sg59
S'E503'
p112
sg61
(lp113
S'3.552'
p114
aS'Nat'
p115
aS'Nation'
p116
aS'X'
asg66
I00
sg67
F0
sg68
F80
sg69
I12
sg70
S''
sg71
F0.02
sg72
F0
sS'm'
F195350
sg73
I10
sg74
(lp117
S'3.2'
p118
aS'30'
p119
asg78
F8.3333333333333339
sg79
F45
sg80
F3552
sg81
F0
sS'x'
F2375.0002063697843
sg82
(lp120
sg98
F45
sg99
(lp121
S'2.385'
p122
aS'PoV+10'
p123
aS'1'
asg103
F2550.6800000000571
sba(i__main__
Tr
p124
(dp125
g3
F6177.1289501852816
sg4
(lp126
S'4.0'
p127
aS'0.0'
p128
asg8
I5
sg9
F6400
sg10
F1
sg11
F0.10000000000000001
sg12
F4000
sg13
F6000
sg14
F3690
sg15
I01
sg16
F91.359201431124163
sg17
S'sig:WestboundMain:1370'
p129
sg19
F45
sg20
I0
sg21
I9223372036854775807
sg22
F30
sg23
I0
sg24
I-1
sg25
I6
sg26
F0
sS'v'
F12.498368117103325
sg27
I698
sg28
I00
sg29
F-1
sg30
F44.99412522157197
sg31
g32
sg35
F12.5
sg36
F5200
sg37
I00
sg38
I01
sg39
I00
sg40
I9223372036854775807
sg41
S'green'
p130
sg43
F-0.0017224207093882813
sg44
F3.870856447509281
sg45
F59.185606060606048
sg46
F3900
sg47
g48
sS'a'
F0
sg49
F0.00065520782817050829
sg50
F0
sg51
F-0.025000000000000001
sg52
F0
sg53
I00
sg54
F59.185606060606048
sg55
I00
sg56
F0.24525000000000002
sg57
S'WestboundMain'
p131
sg59
S'E505'
p132
sg61
(lp133
S'4.269'
p134
aS'ReD'
p135
aS'Reuilly-Diderot'
p136
asg66
I00
sg67
F0
sg68
F80
sg69
I17
sg70
S''
sg71
F0
sg72
F0
sS'm'
F195350
sg73
I13
sg74
(lp137
S'5.2'
p138
aS'30'
p139
asg78
F8.3333333333333339
sg79
F45
sg80
F4269
sg81
F0
sS'x'
F3870.8564475092812
sg82
(lp140
sg98
F45
sg99
(lp141
S'3.9'
p142
aS'1370'
p143
aS'1'
asg103
F583.91563868563992
sba(i__main__
Tr
p144
(dp145
g3
F6240.5558193831348
sg4
(lp146
S'5.8'
p147
aS'0.8'
p148
asg8
I6
sg9
F6400
sg10
F1
sg11
F0
sg12
F5800
sg13
F6000
sg14
F5090
sg15
I00
sg16
F49.845246015134855
sg17
S'sig:WestboundMain:1465'
p149
sg19
F30
sg20
I0
sg21
I9223372036854775807
sg22
F40
sg23
I0
sg24
I-1
sg25
I7
sg26
F0
sS'v'
F10.46634516851241
sg27
I698
sg28
I00
sg29
F5200
sg30
F37.678842606644679
sg31
g32
sg35
F12.5
sg36
F5500
sg37
I00
sg38
I00
sg39
I00
sg40
I9223372036854775807
sg41
S'green'
p150
sg43
F-0.001396271900539736
sg44
F5.1620277909688861
sg45
F0
sg46
F5212
sg47
S'INC'
p151
sS'a'
F-1.1000000000000001
sg49
F0.0014756017144261729
sg50
F0
sg51
F0
sg52
F0
sg53
I00
sg54
F59.185606060606048
sg55
I00
sg56
F-1.1000000000000001
sg57
S'WestboundMain'
p152
sg59
S'E507'
p153
sg61
(lp154
S'5.352'
p155
aS'GdL'
p156
aS'Gare-De-Lyon'
p157
aS'X'
asg66
I00
sg67
F0
sg68
F80
sg69
I22
sg70
S''
sg71
F-0.0034999999999999996
sg72
F0
sS'm'
F195350
sg73
I16
sg74
(lp158
S'5.5'
p159
aS'40'
p160
asg78
F8.3333333333333339
sg79
F30
sg80
F5352
sg81
F0
sS'x'
F5162.0277909688857
sg82
(lp161
sg98
F30
sg99
(lp162
S'5.212'
p163
aS'GdL-140'
p164
aS'1'
asg103
F488.88054055119659
sba(i__main__
Tr
p165
(dp166
g3
F3785.7438400012966
sg4
(lp167
S'6.3'
p168
aS'0.0'
p169
asg8
I7
sg9
F6400
sg10
F1
sg11
F0
sg12
F6300
sg13
F6000
sg14
F5890
sg15
I00
sg16
F21.89233636884088
sg17
S'sig:WestboundMain:Bas-95'
p170
sg19
F25
sg20
I0
sg21
I9223372036854775807
sg22
F55
sg23
I0
sg24
I-1
sg25
I9
sg26
F0
sS'v'
F6.9395744595354216
sg27
I698
sg28
I00
sg29
F-1
sg30
F24.982468054327519
sg31
g32
sg35
F11.111111111111111
sg36
F6550
sg37
I00
sg38
I00
sg39
I00
sg40
I9223372036854775807
sg41
S'green'
p171
sg43
F0.0028655484738122025
sg44
F6.2692871920000615
sg45
F0
sg46
F6315
sg47
g151
sS'a'
F0
sg49
F1
sg50
F2.4967056741035094
sg51
F0.0080000000000000002
sg52
F0
sg53
I00
sg54
F51.294191919191903
sg55
I00
sg56
F-0.078480000000000008
sg57
S'WestboundMain'
p172
sg59
S'E509'
p173
sg61
(lp174
S'6.305'
p175
aS'Bas'
p176
aS'Bastille'
p177
asg66
I00
sg67
F0
sg68
F80
sg69
I28
sg70
S''
sg71
F0
sg72
F0
sS'm'
F195350
sg73
I17
sg74
(lp178
S'6.55'
p179
aS'55'
p180
asg78
F6.9444444444444446
sg79
F25
sg80
F6305
sg81
F0
sS'x'
F6269.2871920000616
sg82
(lp181
sg98
F25
sg99
(lp182
S'6.315'
p183
aS'Bas+10'
p184
aS'1'
asba(i__main__
Tr
p185
(dp186
g3
F2800.0112682924919
sg4
(lp187
S'7.1'
p188
aS'-0.2'
p189
asg8
I9
sg9
F6400
sg10
F1
sg11
F-0.5
sg12
F7100
sg13
F6000
sg14
F6940
sg15
I00
sg16
F0
sg17
S'sig:WestboundMain:StP-140'
p190
sg19
F55
sg20
I0
sg21
I9223372036854775807
sg22
F50
sg23
I0
sg24
I-1
sg25
I10
sg26
F31.704999999999998
sS'v'
F0
sg27
I698
sg28
I01
sg29
F-1
sg30
F0
sg31
g32
sg35
F15.277777777777777
sg36
F8500
sg37
I00
sg38
I00
sg39
I01
sg40
I9223372036854775807
sg41
S'green'
p191
sg43
F0.0010811152185479641
sg44
F7.0100005634146232
sg45
F27.619949494949459
sg46
F7020
sg47
g48
sS'a'
F0
sg49
F0.00092288453144849178
sg50
F0
sg51
F0
sg52
F0
sg53
I00
sg54
F27.619949494949459
sg55
I00
sg56
F0
sg57
S'WestboundMain'
p192
sg59
S'E511'
p193
sg61
(lp194
S'7.716'
p195
aS'HoV'
p196
aS'Hotel-De-Ville'
p197
asg66
I00
sg67
F0
sg68
F80
sg69
I32
sg70
S''
sg71
F-0.0050000000000000001
sg72
F0
sS'm'
F195350
sg73
I20
sg74
(lp198
S'8.5'
p199
aS'50'
p200
asg78
F13.888888888888889
sg79
F55
sg80
F7716
sg81
F0
sS'x'
F7010.0005634146228
sg82
(lp201
sg98
F55
sg99
(lp202
S'7.02'
p203
aS'StP+10'
p204
aS'1'
asg103
F2584.5600000160562
sba(i__main__
Tr
p205
(dp206
g3
F7130.0415905709697
sg4
(lp207
S'8.5'
p208
aS'0.0'
p209
asg8
I11
sg9
F6400
sg10
F1
sg11
F1
sg12
F8500
sg13
F6000
sg14
F8190
sg15
I01
sg16
F109.96617751718428
sg17
S'sig:WestboundMain:LoR-140'
p210
sg19
F55
sg20
I0
sg21
I9223372036854775807
sg22
F50
sg23
I0
sg24
I-1
sg25
I10
sg26
F0
sS'v'
F15.274208276931745
sg27
I698
sg28
I00
sg29
F-1
sg30
F54.987149796954284
sg31
g32
sg35
F15.277777777777777
sg36
F8500
sg37
I00
sg38
I01
sg39
I00
sg40
I9223372036854775807
sg41
S'green'
p211
sg43
F0.0019365006700622198
sg44
F8.4355020795285309
sg45
F27.619949494949459
sg46
F8459
sg47
g48
sS'a'
F0
sg49
F0.001328994242248882
sg50
F5.8081055219828484
sg51
F-0.0040000000000000001
sg52
F0
sg53
I00
sg54
F27.619949494949459
sg55
I00
sg56
F0.039240000000000004
sg57
S'WestboundMain'
p212
sg59
S'E513'
p213
sg61
(lp214
S'8.599'
p215
aS'LoR'
p216
aS'Louvre-Rivolli'
p217
asg66
I00
sg67
F0
sg68
F80
sg69
I39
sg70
S''
sg71
F0
sg72
F0
sS'm'
F195350
sg73
I25
sg74
g198
sg78
F13.888888888888889
sg79
F55
sg80
F8599
sg81
F0
sS'x'
F8435.5020795285309
sg82
(lp218
sg98
F55
sg99
(lp219
S'8.459'
p220
aS'LoR-140'
p221
aS'1'
asg103
F101.26905998400004
sba(i__main__
Tr
p222
(dp223
g3
F6730.3701007959016
sg4
(lp224
S'9.3'
p225
aS'0.0'
p226
asg8
I13
sg9
F6400
sg10
F1
sg11
F-0.20000000000000001
sg12
F9300
sg13
F6000
sg14
F9090
sg15
I00
sg16
F93.081514620475019
sg17
S'sig:WestboundMain:Tui-140'
p227
sg19
F50
sg20
I0
sg21
I9223372036854775807
sg22
F55
sg23
I0
sg24
I-1
sg25
I11
sg26
F0
sS'v'
F13.883974544679143
sg27
I698
sg28
I00
sg29
F-1
sg30
F49.982308360844918
sg31
g32
sg35
F0
sg36
F9450
sg37
I00
sg38
I00
sg39
I00
sg40
I9223372036854775807
sg41
S'green'
p228
sg43
F0.0020082728764092258
sg44
F9.2985185050397945
sg45
F0
sg46
F9432
sg47
g151
sS'a'
F-1.036235
sg49
F0.0013966207249217809
sg50
F4.5204347991406069
sg51
F-0.0065000000000000006
sg52
F0
sg53
I00
sg54
F0
sg55
I00
sg56
F-1.036235
sg57
S'WestboundMain'
p229
sg59
S'E515'
p230
sg61
(lp231
S'9.422'
p232
aS'Tui'
p233
aS'Tuileries'
p234
asg66
I00
sg67
F0
sg68
F80
sg69
I44
sg70
S''
sg71
F0
sg72
F0
sS'm'
F195350
sg73
I29
sg74
(lp235
S'9.45'
p236
aS'55'
p237
asg78
F0
sg79
F50
sg80
F9422
sg81
F0
sS'x'
F9298.518505039794
sg82
(lp238
sg98
F50
sg99
(lp239
S'9.432'
p240
aS'Tui+10'
p241
aS'1'
asg103
F197.62043993043795
sba(i__main__
Tr
p242
(dp243
g3
F2800.0220890397131
sg4
(lp244
S'9.85'
p245
aS'-0.1'
p246
asg8
I15
sg9
F6400
sg10
F1
sg11
F0
sg12
F9850
sg13
F6000
sg14
F9840
sg15
I00
sg16
F0
sg17
S'sig:WestboundMain:Con-140'
p247
sg19
F55
sg20
I0
sg21
I9223372036854775807
sg22
F60
sg23
I0
sg24
I-1
sg25
I12
sg26
F36.575000000000003
sS'v'
F0
sg27
I698
sg28
I01
sg29
F-1
sg30
F0
sg31
g32
sg35
F0
sg36
F10800
sg37
I00
sg38
I00
sg39
I01
sg40
I9223372036854775807
sg41
S'green'
p248
sg43
F-0.0030770649476907384
sg44
F9.8340011044519855
sg45
F0
sg46
F9844
sg47
g151
sS'a'
F0
sg49
F0.066654394977942705
sg50
F0
sg51
F0
sg52
F0
sg53
I00
sg54
F0
sg55
I00
sg56
F0
sg57
S'WestboundMain'
p249
sg59
S'E516'
p250
sg61
(lp251
S'10.634'
p252
aS'ChE'
p253
aS'Champs-Elysees-Clemenceau'
p254
aS'X'
asg66
I00
sg67
F0
sg68
F80
sg69
I46
sg70
S''
sg71
F-0.0030000000000000001
sg72
F0
sS'm'
F195350
sg73
I32
sg74
(lp255
S'10.8'
p256
aS'60'
p257
asg78
F0
sg79
F55
sg80
F10634
sg81
F0
sS'x'
F9834.0011044519852
sg82
(lp258
sg98
F55
sg99
(lp259
S'9.844'
p260
aS'Con+10'
p261
aS'1'
asg103
F2581.616865651546
sba(i__main__
Tr
p262
(dp263
g3
F7048.916388937042
sg4
(lp264
S'11.1'
p265
aS'2.0'
p266
asg8
I16
sg9
F6400
sg10
F1
sg11
F-0.10000000000000001
sg12
F11100
sg13
F6000
sg14
F11040
sg15
I00
sg16
F84.666554059602248
sg17
S'sig:WestboundMain:Fra-140'
p267
sg19
F60
sg20
I0
sg21
I9223372036854775807
sg22
F30
sg23
I0
sg24
I-1
sg25
I13
sg26
F0
sS'v'
F13.642445593792678
sg27
I698
sg28
I00
sg29
F-1
sg30
F49.11280413765364
sg31
g32
sg35
F16.666666666666668
sg36
F11800
sg37
I00
sg38
I00
sg39
I00
sg40
I9223372036854775807
sg41
S'green'
p268
sg43
F-0.0038418053367301904
sg44
F10.996445819446812
sg45
F142.04545454545456
sg46
F11091
sg47
g48
sS'a'
F-1.1000000000000001
sg49
F0.48772796325592938
sg50
F0
sg51
F0
sg52
F0
sg53
I00
sg54
F142.04545454545456
sg55
I01
sg56
F-1.1000000000000001
sg57
S'WestboundMain'
p269
sg59
S'E518'
p270
sg61
(lp271
S'11.081'
p272
aS'Fra'
p273
aS'Franklin-Roosevelt'
p274
aS'X'
asg66
I00
sg67
F0
sg68
F80
sg69
I51
sg70
S''
sg71
F0.01
sg72
F0
sS'm'
F195350
sg73
I36
sg74
(lp275
S'11.8'
p276
aS'30'
p277
asg78
F8.3333333333333339
sg79
F60
sg80
F11081
sg81
F0
sS'x'
F10996.445819446812
sg82
(lp278
sg98
F60
sg99
(lp279
S'11.091'
p280
aS'Fra+10'
p281
aS'1'
asg103
F661.87000000000069
sba(i__main__
Tr
p282
(dp283
g3
F6040.0351996283434
sg4
(lp284
S'11.75'
p285
aS'2.5'
p286
asg8
I17
sg9
F6400
sg10
F1
sg11
F0
sg12
F11750
sg13
F6000
sg14
F11690
sg15
I00
sg16
F26.095180144538972
sg17
S'sig:WestboundMain:Geo-140'
p287
sg19
F30
sg20
I0
sg21
I9223372036854775807
sg22
F40
sg23
I0
sg24
I-1
sg25
I14
sg26
F0
sS'v'
F7.5713988588990517
sg27
I698
sg28
I00
sg29
F11800
sg30
F27.257035892036587
sg31
g32
sg35
F16.666666666666668
sg36
F12250
sg37
I00
sg38
I00
sg39
I00
sg40
I9223372036854775807
sg41
S'green'
p288
sg43
F-0.0015472220215483265
sg44
F11.702001759981448
sg45
F0
sg46
F11738
sg47
g151
sS'a'
F-1.1000000000000001
sg49
F0.0014350651550759923
sg50
F0
sg51
F0
sg52
F0
sg53
I00
sg54
F142.04545454545456
sg55
I01
sg56
F-1.1000000000000001
sg57
S'WestboundMain'
p289
sg59
S'E519'
p290
sg61
(lp291
S'11.728'
p292
aS'Geo'
p293
aS'Georges-V'
p294
asg66
I00
sg67
F0
sg68
F80
sg69
I54
sg70
S''
sg71
F0.02
sg72
F0
sS'm'
F195350
sg73
I38
sg74
(lp295
S'12.25'
p296
aS'40'
p297
asg78
F8.3333333333333339
sg79
F30
sg80
F11728
sg81
F0
sS'x'
F11702.001759981447
sg82
(lp298
sg98
F30
sg99
(lp299
S'11.738'
p300
aS'Geo+10'
p301
aS'1'
asg103
F1646.8100000000302
sba(i__main__
Tr
p302
(dp303
g3
F5630.2905947440886
sg4
(lp304
S'12.6'
p305
aS'0.0'
p306
asg8
I19
sg9
F6400
sg10
F1
sg11
F2.5
sg12
F12600
sg13
F6000
sg14
F12340
sg15
I01
sg16
F68.272396785599796
sg17
S'sig:WestboundMain:2228'
p307
sg19
F40
sg20
I0
sg21
I9223372036854775807
sg22
F60
sg23
I0
sg24
I-1
sg25
I15
sg26
F0
sS'v'
F11.10994964833321
sg27
I698
sg28
I00
sg29
F-1
sg30
F39.995818733999556
sg31
g32
sg35
F0
sg36
F12750
sg37
I00
sg38
I00
sg39
I00
sg40
I9223372036854775807
sg41
S'green'
p308
sg43
F0.0056163567899622339
sg44
F12.490514529737453
sg45
F0
sg46
F12615
sg47
g151
sS'a'
F0
sg49
F0.0001894613608278127
sg50
F0
sg51
F-0.02
sg52
F0
sg53
I00
sg54
F0
sg55
I00
sg56
F0.19620000000000001
sg57
S'WestboundMain'
p309
sg59
S'E521'
p310
sg61
(lp311
S'12.705'
p312
aS'Arg'
p313
aS'Argentine'
p314
asg66
I00
sg67
F0
sg68
F80
sg69
I59
sg70
S''
sg71
F0
sg72
F0
sS'm'
F195350
sg73
I41
sg74
(lp315
S'12.75'
p316
aS'60'
p317
asg78
F0
sg79
F40
sg80
F12705
sg81
F0
sS'x'
F12490.514529737453
sg82
(lp318
sg98
F40
sg99
(lp319
S'12.615'
p320
aS'Arg-90'
p321
aS'1'
asg103
F551.90590220967022
sba(i__main__
Tr
p322
(dp323
g3
F7404.2967335110516
sg4
(lp324
S'14.0'
p325
aS'0.0'
p326
asg8
I21
sg9
F6400
sg10
F1
sg11
F-0.5
sg12
F14000
sg13
F6000
sg14
F13390
sg15
I01
sg16
F128.47419525511458
sg17
S'sig:WestboundMain:2340'
p327
sg19
F60
sg20
I0
sg21
I9223372036854775807
sg22
F50
sg23
I0
sg24
I-1
sg25
I16
sg26
F0
sS'v'
F16.661487662081591
sg27
I698
sg28
I00
sg29
F-1
sg30
F59.98135558349373
sg31
g32
sg35
F16.666666666666668
sg36
F15160
sg37
I00
sg38
I00
sg39
I00
sg40
I9223372036854775807
sg41
S'green'
p328
sg43
F-0.0011936226713213224
sg44
F13.638214836675596
sg45
F57.870370370370395
sg46
F13965
sg47
g48
sS'a'
F0
sg49
F0.003379763483159574
sg50
F7.2165021893907051
sg51
F-0.002
sg52
F0
sg53
I00
sg54
F57.870370370370395
sg55
I00
sg56
F0.019620000000000002
sg57
S'WestboundMain'
p329
sg59
S'E523'
p330
sg61
(lp331
S'14.105'
p332
aS'Sab'
p333
aS'Sablons'
p334
asg66
I00
sg67
F0
sg68
F80
sg69
I64
sg70
S''
sg71
F0
sg72
F0
sS'm'
F195350
sg73
I45
sg74
(lp335
S'15.16'
p336
aS'50'
p337
asg78
F13.888888888888889
sg79
F60
sg80
F14105
sg81
F0
sS'x'
F13638.214836675596
sg82
(lp338
sg98
F60
sg99
(lp339
S'13.965'
p340
aS'Sab-140'
p341
aS'1'
asg103
F33.84940738760001
sba(i__main__
Tr
p342
(dp343
g3
F7404.0422288716209
sg4
(lp344
S'15.0'
p345
aS'0.0'
p346
asg8
I22
sg9
F6400
sg10
F1
sg11
F0
sg12
F15000
sg13
F6000
sg14
F14240
sg15
I01
sg16
F127.32237354149386
sg17
S'sig:WestboundMain:2450'
p347
sg19
F60
sg20
I0
sg21
I9223372036854775807
sg22
F50
sg23
I0
sg24
I-1
sg25
I16
sg26
F0
sS'v'
F16.661716338191852
sg27
I698
sg28
I00
sg29
F-1
sg30
F59.98217881749067
sg31
g32
sg35
F16.666666666666668
sg36
F15160
sg37
I00
sg38
I00
sg39
I00
sg40
I9223372036854775807
sg41
S'green'
p348
sg43
F0.0050607969595985527
sg44
F14.770202111443583
sg45
F57.870370370370395
sg46
F14988
sg47
g48
sS'a'
F0
sg49
F1
sg50
F7.3791294468282098
sg51
F-0.001
sg52
F0
sg53
I00
sg54
F57.870370370370395
sg55
I00
sg56
F0.009810000000000001
sg57
S'WestboundMain'
p349
sg59
S'E525'
p350
sg61
(lp351
S'15.128'
p352
aS'PoN'
p353
aS'Pont-De-Neuilly'
p354
asg66
I00
sg67
F0
sg68
F80
sg69
I68
sg70
S''
sg71
F0
sg72
F0
sS'm'
F195350
sg73
I47
sg74
g335
sg78
F13.888888888888889
sg79
F60
sg80
F15128
sg81
F0
sS'x'
F14770.202111443583
sg82
(lp355
sg98
F60
sg99
(lp356
S'14.988'
p357
aS'PoN-140'
p358
aS'1'
asg103
F15.450685069299997
sba(i__main__
Tr
p359
(dp360
g3
F6589.7745840573389
sg4
(lp361
S'15.85'
p362
aS'-2.0'
p363
asg8
I23
sg9
F6400
sg10
F1
sg11
F2.5
sg12
F15850
sg13
F6000
sg14
F15790
sg15
I00
sg16
F50.665437867238687
sg17
S'sig:WestboundMain:Esp-140'
p364
sg19
F50
sg20
I0
sg21
I9223372036854775807
sg22
F10
sg23
I0
sg24
I-1
sg25
I17
sg26
F0
sS'v'
F10.552149516247692
sg27
I698
sg28
I00
sg29
F-1
sg30
F37.987738258491689
sg31
g32
sg35
F13.888888888888889
sg36
F17000
sg37
I00
sg38
I01
sg39
I00
sg40
I9223372036854775807
sg41
S'green'
p365
sg43
F-0.0043435394087997931
sg44
F15.779488729202175
sg45
F126.26262626262624
sg46
F15794
sg47
g48
sS'a'
F-1.1000000000000001
sg49
F0.11972610595259742
sg50
F0
sg51
F0
sg52
F0
sg53
I00
sg54
F126.26262626262624
sg55
I01
sg56
F-1.1000000000000001
sg57
S'WestboundMain'
p366
sg59
S'E526'
p367
sg61
(lp368
S'15.834'
p369
aS'Esp'
p370
aS'Esplanade-De-La-Defense'
p371
asg66
I00
sg67
F0
sg68
F80
sg69
I71
sg70
S''
sg71
F-0.01
sg72
F0
sS'm'
F195350
sg73
I52
sg74
(lp372
S'17.0'
p373
aS'10'
p374
asg78
F2.7777777777777777
sg79
F50
sg80
F15834
sg81
F0
sS'x'
F15779.488729202174
sg82
(lp375
sg98
F50
sg99
(lp376
S'15.794'
p377
aS'Esp-140'
p378
aS'1'
asg103
F794.21933532029448
sba(i__main__
Tr
p379
(dp380
g3
F2000.0087080433782
sg4
(lp381
S'16.8'
p382
aS'0.0'
p383
asg8
I24
sg9
F6400
sg10
F1
sg11
F0
sg12
F16800
sg13
F6000
sg14
F16540
sg15
I00
sg16
F0
sg17
S'sig:WestboundMain:LaD-100'
p384
sg19
F50
sg20
I0
sg21
I9223372036854775807
sg22
F10
sg23
I0
sg24
I-1
sg25
I17
sg26
F0
sS'v'
F0
sg27
I698
sg28
I01
sg29
F-1
sg30
F0
sg31
g32
sg35
F13.888888888888889
sg36
F17000
sg37
I00
sg38
I00
sg39
I00
sg40
I9223372036854775807
sg41
S'green'
p385
sg43
F0.0097575275552062475
sg44
F16.775000435402166
sg45
F126.26262626262624
sg46
F16785
sg47
g48
sS'a'
F0
sg49
F1
sg50
F0
sg51
F-0.014999999999999999
sg52
F0
sg53
I00
sg54
F126.26262626262624
sg55
I00
sS'waitReact'
p386
F30.109713682266662
sg56
F0
sg57
S'WestboundMain'
p387
sg59
S'E527'
p388
sg61
(lp389
S'16.775'
p390
aS'LaD'
p391
aS'La-Defense'
p392
aS'X'
asS'react'
p393
I01
sg66
I00
sg67
F0
sg68
F80
sg69
I76
sg70
S''
sg71
F0
sg72
F0
sS'm'
F195350
sg73
I55
sg74
g372
sg78
F2.7777777777777777
sg79
F50
sg80
I9223372036854775807
sg81
F0
sS'x'
F16775.000435402166
sg82
(lp394
sg98
F50
sg99
(lp395
S'16.785'
p396
aS'LaD+10'
p397
aS'3'
asg103
F1939.3237897096787
sba(i__main__
Tr
p398
(dp399
g3
F6706.5051986144072
sg4
(lp400
S'1.125'
p401
aS'0.0'
p402
asg8
I1
sg9
F6400
sg10
F1
sg11
F1.5
sg12
F1125
sg13
F6000
sg14
F1115
sg15
I00
sg16
F87.499341325604007
sg17
S'sig:EastboundMain:Esp-140'
p403
sg19
F50
sg20
I0
sg21
I9223372036854775807
sg22
F60
sg23
I0
sg24
I-1
sg25
I2
sg26
F0
sS'v'
F13.875757458532185
sg27
I698
sg28
I00
sg29
F-1
sg30
F49.952726850715869
sg31
(lp404
S'0.0'
p405
aS'0.0'
p406
asg35
F0
sg36
F1900
sg37
I00
sg38
I00
sg39
I00
sg40
I9223372036854775807
sg41
S'green'
p407
sg43
F0.0053254418236265318
sg44
F1.1053252599307504
sg45
F0
sg46
F1241
sg47
g151
sS'a'
F0.47075089389830671
sg49
F0.11135138014271635
sg50
F7.4088591902312348
sg51
F0.02
sg52
F0
sg53
I00
sg54
F0
sg55
I00
sg56
F0.27455089389830667
sg57
S'EastboundMain'
p408
sg59
S'E550'
p409
sg61
(lp410
S'1.231'
p411
aS'Esp'
p412
aS'Esplanade-De-La-Defense'
p413
asg66
I00
sg67
F0
sg68
F80
sg69
I5
sg70
S''
sg71
F0
sg72
F0
sS'm'
F195350
sg73
I4
sg74
(lp414
S'1.9'
p415
aS'60'
p416
asg78
F0
sg79
F50
sg80
F1231
sg81
F0
sS'x'
F1105.3252599307505
sg82
(lp417
sg98
F50
sg99
(lp418
S'1.241'
p419
aS'Esp+10'
p420
aS'1'
asba(i__main__
Tr
p421
(dp422
g3
F7358.6031352278214
sg4
(lp423
S'2.825'
p424
aS'0.0'
p425
asg8
I3
sg9
F6400
sg10
F1
sg11
F-2.5
sg12
F2825
sg13
F6000
sg14
F2065
sg15
I01
sg16
F126.03070925641205
sg17
S'sig:EastboundMain:1200'
p426
sg19
F60
sg20
I0
sg21
I9223372036854775807
sg22
F40
sg23
I0
sg24
I-1
sg25
I3
sg26
F0
sS'v'
F16.651304059105172
sg27
I698
sg28
I00
sg29
F-1
sg30
F59.944694612778619
sg31
g404
sg35
F16.666666666666668
sg36
F4500
sg37
I00
sg38
I00
sg39
I00
sg40
I9223372036854775807
sg41
S'green'
p427
sg43
F0.0027061494004845129
sg44
F2.3149301567613922
sg45
F105.21885521885525
sg46
F2520
sg47
g48
sS'a'
F0
sg49
F0.0001661141605028307
sg50
F7.6951018924631782
sg51
F0.001
sg52
F0
sg53
I00
sg54
F105.21885521885525
sg55
I00
sg56
F-0.009810000000000001
sg57
S'EastboundMain'
p428
sg59
S'E552'
p429
sg61
(lp430
S'2.96'
p431
aS'Sab'
p432
aS'Sablons'
p433
asg66
I00
sg67
F0
sg68
F80
sg69
I10
sg70
S''
sg71
F0
sg72
F0
sS'm'
F195350
sg73
I10
sg74
(lp434
S'4.5'
p435
aS'40'
p436
asg78
F11.111111111111111
sg79
F60
sg80
F2960
sg81
F0
sS'x'
F2314.930156761392
sg82
(lp437
sg98
F60
sg99
(lp438
S'2.52'
p439
aS'1232'
p440
aS'1'
asba(i__main__
Tr
p441
(dp442
g3
F7184.9874112404341
sg4
(lp443
S'3.675'
p444
aS'0.0'
p445
asg8
I4
sg9
F6400
sg10
F1
sg11
F0.10000000000000001
sg12
F3675
sg13
F6000
sg14
F3065
sg15
I01
sg16
F113.50688920632179
sg17
S'sig:EastboundMain:1305'
p446
sg19
F60
sg20
I0
sg21
I9223372036854775807
sg22
F40
sg23
I0
sg24
I-1
sg25
I3
sg26
F0
sS'v'
F15.660913721207342
sg27
I698
sg28
I00
sg29
F-1
sg30
F56.379289396346429
sg31
g404
sg35
F16.666666666666668
sg36
F4500
sg37
I00
sg38
I00
sg39
I00
sg40
I9223372036854775807
sg41
S'yellow'
p447
sg43
F-0.0028304957027060758
sg44
F3.3292493705620312
sg45
F105.21885521885525
sg46
F3687
sg47
g48
sS'a'
F0
sg49
F0.0023378726965297067
sg50
F6.3876879282804788
sg51
F-0.002
sg52
F0
sg53
I00
sg54
F105.21885521885525
sg55
I00
sg56
F0.019620000000000002
sg57
S'EastboundMain'
p448
sg59
S'E554'
p449
sg61
(lp450
S'3.827'
p451
aS'PoM'
p452
aS'Porte-Maillot'
p453
aS'X'
asg66
I00
sg67
F0
sg68
F80
sg69
I14
sg70
S''
sg71
F0
sg72
F0
sS'm'
F195350
sg73
I12
sg74
g434
sg78
F11.111111111111111
sg79
F60
sg80
F3827
sg81
F0
sS'x'
F3329.2493705620313
sg82
(lp454
sg98
F60
sg99
(lp455
S'3.687'
p456
aS'PoM-140'
p457
aS'1'
asba(i__main__
Tr
p458
(dp459
g3
F2800.0001070209605
sg4
(lp460
S'4.225'
p461
aS'0.0'
p462
asg8
I5
sg9
F6400
sg10
F1
sg11
F-0.20000000000000001
sg12
F4225
sg13
F6000
sg14
F3915
sg15
I00
sg16
F0
sg17
S'sig:EastboundMain:PoM-140'
p463
sg19
F60
sg20
I0
sg21
I9223372036854775807
sg22
F40
sg23
I0
sg24
I-1
sg25
I3
sg26
F31.829999999999998
sS'v'
F0
sg27
I698
sg28
I01
sg29
F-1
sg30
F0
sg31
g404
sg35
F16.666666666666668
sg36
F4500
sg37
I00
sg38
I00
sg39
I01
sg40
I9223372036854775807
sg41
S'green'
p464
sg43
F-0.0048606809339409853
sg44
F3.8270000053510462
sg45
F105.21885521885525
sg46
F3837
sg47
g48
sS'a'
F0
sg49
F0.97777771832170912
sg50
F0
sg51
F0.0050000000000000001
sg52
F0
sg53
I00
sg54
F105.21885521885525
sg55
I00
sg56
F0
sg57
S'EastboundMain'
p465
sg59
S'E555'
p466
sg61
(lp467
S'4.36'
p468
aS'Arg'
p469
aS'Argentine'
p470
asg66
I00
sg67
F0
sg68
F80
sg69
I15
sg70
S''
sg71
F0
sg72
F0
sS'm'
F195350
sg73
I14
sg74
g434
sg78
F11.111111111111111
sg79
F60
sg80
F4360
sg81
F0
sS'x'
F3827.0000053510462
sg82
(lp471
sg98
F60
sg99
(lp472
S'3.837'
p473
aS'PoM+10'
p474
aS'1'
asg103
F2583.342463663445
sba(i__main__
Tr
p475
(dp476
g3
F2798.4827330524276
sg4
(lp477
S'5.225'
p478
aS'0.0'
p479
asg8
I6
sg9
F6400
sg10
F1
sg11
F2
sg12
F5225
sg13
F6000
sg14
F4965
sg15
I00
sg16
F0.027874774730541375
sg17
S'sig:EastboundMain:CDE-140'
p480
sg19
F30
sg20
I0
sg21
I9223372036854775807
sg22
F60
sg23
I0
sg24
I-1
sg25
I5
sg26
F0
sS'v'
F0.21829301428267184
sg27
I698
sg28
I00
sg29
F-1
sg30
F0.78585485141761868
sg31
g404
sg35
F11.111111111111111
sg36
F5950
sg37
I00
sg38
I00
sg39
I00
sg40
I9223372036854775807
sg41
S'green'
p481
sg43
F-0.00040609194630457536
sg44
F4.9659241366526263
sg45
F0
sg46
F4986
sg47
g151
sS'a'
F-4.0000000000000003e-05
sg49
F4.4105367457329218e-05
sg50
F0
sg51
F-0.025000000000000001
sg52
F0
sg53
I00
sg54
F36.826599326599307
sg55
I01
sg56
F-4.0000000000000003e-05
sg57
S'EastboundMain'
p482
sg59
S'E557'
p483
sg61
(lp484
S'4.966'
p485
aS'CDE'
p486
aS'Charles-De-Gaulle-Etoile'
p487
aS'X'
asg66
I00
sg67
F0
sg68
F80
sg69
I20
sg70
S''
sg71
F0
sg72
F0
sS'm'
F195350
sg73
I18
sg74
(lp488
S'5.95'
p489
aS'60'
p490
asg78
F8.3333333333333339
sg79
F30
sg80
F4966
sg81
F0
sS'x'
F4965.9241366526267
sg82
(lp491
sg98
F30
sg99
(lp492
S'4.986'
p493
aS'CDE+10'
p494
aS'1'
asg103
F1921.4490325233519
sba(i__main__
Tr
p495
(dp496
g3
F2800.014210656469
sg4
(lp497
S'6.025'
p498
aS'-1.0'
p499
asg8
I9
sg9
F6400
sg10
F1
sg11
F0
sg12
F6025
sg13
F6000
sg14
F5965
sg15
I00
sg16
F0
sg17
S'sig:EastboundMain:Fra-140'
p500
sg19
F60
sg20
I0
sg21
I9223372036854775807
sg22
F55
sg23
I0
sg24
I-1
sg25
I6
sg26
F37.064999999999998
sS'v'
F0
sg27
I698
sg28
I01
sg29
F-1
sg30
F0
sg31
g404
sg35
F16.666666666666668
sg36
F7300
sg37
I00
sg38
I00
sg39
I01
sg40
I9223372036854775807
sg41
S'green'
p501
sg43
F-0.0037065796345670467
sg44
F5.9840007105327988
sg45
F30.250420875420936
sg46
F5994
sg47
g48
sS'a'
F0
sg49
F0.0015258410361436998
sg50
F0
sg51
F0
sg52
F0
sg53
I00
sg54
F30.250420875420936
sg55
I00
sg56
F0
sg57
S'EastboundMain'
p502
sg59
S'E559'
p503
sg61
(lp504
S'6.431'
p505
aS'ChE'
p506
aS'Champs-Elysees-Clemenceau'
p507
aS'X'
asg66
I00
sg67
F0
sg68
F80
sg69
I25
sg70
S''
sg71
F-0.02
sg72
F0
sS'm'
F195350
sg73
I21
sg74
(lp508
S'7.3'
p509
aS'55'
p510
asg78
F15.277777777777777
sg79
F60
sg80
F6431
sg81
F0
sS'x'
F5984.0007105327986
sg82
(lp511
sg98
F60
sg99
(lp512
S'5.994'
p513
aS'Fra+10'
p514
aS'1'
asg103
F1876.1516214923479
sba(i__main__
Tr
p515
(dp516
g3
F2777.2741235420144
sg4
(lp517
S'7.125'
p518
aS'0.0'
p519
asg8
I9
sg9
F6400
sg10
F1
sg11
F0
sg12
F7125
sg13
F6000
sg14
F6515
sg15
I00
sg16
F0.021796300304717974
sg17
S'sig:EastboundMain:ChE-140'
p520
sg19
F60
sg20
I0
sg21
I9223372036854775807
sg22
F55
sg23
I0
sg24
I-1
sg25
I6
sg26
F0
sS'v'
F0.2180002982985153
sg27
I698
sg28
I00
sg29
F-1
sg30
F0.78480107387465514
sg31
g404
sg35
F16.666666666666668
sg36
F7300
sg37
I00
sg38
I00
sg39
I00
sg40
I9223372036854775807
sg41
S'green'
p521
sg43
F0.0049995602032056287
sg44
F6.4298637061771098
sg45
F30.250420875420936
sg46
F6441
sg47
g48
sS'a'
F-4.0000000000000003e-05
sg49
F0.9460193760038641
sg50
F0
sg51
F-0.001
sg52
F0
sg53
I00
sg54
F30.250420875420936
sg55
I01
sg56
F-4.0000000000000003e-05
sg57
S'EastboundMain'
p522
sg59
S'E560'
p523
sg61
g504
sg66
I00
sg67
F0
sg68
F80
sg69
I27
sg70
S''
sg71
F0
sg72
F0
sS'm'
F195350
sg73
I24
sg74
g508
sg78
F15.277777777777777
sg79
F60
sg80
F6431
sg81
F0
sS'x'
F6429.8637061771096
sg82
(lp524
sg98
F60
sg99
(lp525
S'6.441'
p526
aS'ChE+10'
p527
aS'1'
asg103
F2574.9763660161912
sba(i__main__
Tr
p528
(dp529
g3
F2800.0177842807357
sg4
(lp530
S'7.525'
p531
aS'0.0'
p532
asg8
I11
sg9
F6400
sg10
F1
sg11
F0
sg12
F7525
sg13
F6000
sg14
F7315
sg15
I00
sg16
F0
sg17
S'sig:EastboundMain:Con-140'
p533
sg19
F60
sg20
I0
sg21
I9223372036854775807
sg22
F55
sg23
I0
sg24
I-1
sg25
I6
sg26
F32.590000000000003
sS'v'
F0
sg27
I698
sg28
I01
sg29
F-1
sg30
F0
sg31
g404
sg35
F16.666666666666668
sg36
F7300
sg37
I00
sg38
I00
sg39
I01
sg40
I9223372036854775807
sg41
S'green'
p534
sg43
F-0.00073507712925425085
sg44
F7.2310008892140374
sg45
F30.250420875420936
sg46
F7241
sg47
g48
sS'a'
F0
sg49
F0.93332345317735921
sg50
F0
sg51
F0.0030000000000000001
sg52
F0
sg53
I00
sg54
F30.250420875420936
sg55
I00
sg56
F0
sg57
S'EastboundMain'
p535
sg59
S'E561'
p536
sg61
(lp537
S'7.643'
p538
aS'Tui'
p539
aS'Tuileries'
p540
asg66
I00
sg67
F0
sg68
F80
sg69
I30
sg70
S''
sg71
F0
sg72
F0
sS'm'
F195350
sg73
I26
sg74
g508
sg78
F15.277777777777777
sg79
F60
sg80
F7643
sg81
F0
sS'x'
F7231.0008892140377
sg82
(lp541
sg98
F60
sg99
(lp542
S'7.241'
p543
aS'Con+10'
p544
aS'1'
asg103
F2583.401229002347
sba(i__main__
Tr
p545
(dp546
g3
F2800.0129278091968
sg4
(lp547
S'8.125'
p548
aS'0.2'
p549
asg8
I13
sg9
F6400
sg10
F1
sg11
F0
sg12
F8125
sg13
F6000
sg14
F8065
sg15
I00
sg16
F0
sg17
S'sig:EastboundMain:PaR-140'
p550
sg19
F55
sg20
I0
sg21
I9223372036854775807
sg22
F50
sg23
I0
sg24
I-1
sg25
I7
sg26
F31.785
sS'v'
F0
sg27
I698
sg28
I01
sg29
F-1
sg30
F0
sg31
g404
sg35
F15.277777777777777
sg36
F8350
sg37
I00
sg38
I00
sg39
I01
sg40
I9223372036854775807
sg41
S'green'
p551
sg43
F0.002098013668566703
sg44
F8.1130006463904678
sg45
F27.619949494949459
sg46
F8122.9999999999991
sg47
g48
sS'a'
F0
sg49
F0.0011784397301097568
sg50
F0
sg51
F0
sg52
F0
sg53
I00
sg54
F27.619949494949459
sg55
I00
sg56
F0
sg57
S'EastboundMain'
p552
sg59
S'E563'
p553
sg61
(lp554
S'8.486'
p555
aS'LoR'
p556
aS'Louvre-Rivoli'
p557
asg66
I00
sg67
F0
sg68
F80
sg69
I34
sg70
S''
sg71
F0.0065000000000000006
sg72
F0
sS'm'
F195350
sg73
I29
sg74
(lp558
S'8.35'
p559
aS'50'
p560
asg78
F13.888888888888889
sg79
F55
sg80
F8486
sg81
F0
sS'x'
F8113.0006463904683
sg82
(lp561
sg98
F55
sg99
(lp562
S'8.123'
p563
aS'PaR+10'
p564
aS'1'
asg103
F2577.3000000016577
sba(i__main__
Tr
p565
(dp566
g3
F6694.5333512765073
sg4
(lp567
S'9.875'
p568
aS'0.0'
p569
asg8
I16
sg9
F6400
sg10
F1
sg11
F-1
sg12
F9875
sg13
F6000
sg14
F9465
sg15
I01
sg16
F87.51465658923253
sg17
S'sig:EastboundMain:1953'
p570
sg19
F50
sg20
I0
sg21
I9223372036854775807
sg22
F55
sg23
I0
sg24
I-1
sg25
I8
sg26
F0
sS'v'
F13.875500787843061
sg27
I698
sg28
I00
sg29
F-1
sg30
F49.951802836235018
sg31
g404
sg35
F0
sg36
F10300
sg37
I00
sg38
I01
sg39
I00
sg40
I9223372036854775807
sg41
S'green'
p571
sg43
F-1.4880760020946885e-05
sg44
F9.6937266675638369
sg45
F0
sg46
F9730
sg47
g151
sS'a'
F0
sg49
F0.001598720293400725
sg50
F5.6712832125251236
sg51
F0.002
sg52
F0
sg53
I00
sg54
F0
sg55
I00
sg56
F-0.019620000000000002
sg57
S'EastboundMain'
p572
sg59
S'E565'
p573
sg61
(lp574
S'10.055'
p575
aS'StP'
p576
aS'Saint-Paul'
p577
asg66
I00
sg67
F0
sg68
F80
sg69
I42
sg70
S''
sg71
F0
sg72
F0
sS'm'
F195350
sg73
I36
sg74
(lp578
S'10.3'
p579
aS'55'
p580
asg78
F0
sg79
F50
sg80
F10055
sg81
F0
sS'x'
F9693.7266675638366
sg82
(lp581
sg98
F50
sg99
(lp582
S'9.73'
p583
aS'1953'
p584
aS'1'
asba(i__main__
Tr
p585
(dp586
g3
F6254.4929610882955
sg4
(lp587
S'11.175'
p588
aS'0.0'
p589
asg8
I17
sg9
F6400
sg10
F1
sg11
F0
sg12
F11175
sg13
F6000
sg14
F10765
sg15
I01
sg16
F23.581278931739973
sg17
S'sig:EastboundMain:Bas-140'
p590
sg19
F25
sg20
I0
sg21
I9223372036854775807
sg22
F40
sg23
I0
sg24
I-1
sg25
I10
sg26
F0
sS'v'
F6.9413934883662911
sg27
I698
sg28
I00
sg29
F10750
sg30
F24.989016558118649
sg31
g404
sg35
F15.277777777777777
sg36
F11350
sg37
I00
sg38
I00
sg39
I00
sg40
I9223372036854775807
sg41
S'green'
p591
sg43
F0.0020500581205026751
sg44
F10.712724648054403
sg45
F0
sg46
F10770
sg47
g151
sS'a'
F0
sg49
F0.58276519069786448
sg50
F0
sg51
F-0.0080000000000000002
sg52
F0
sg53
I00
sg54
F126.26262626262623
sg55
I00
sg56
F0.078480000000000008
sg57
S'EastboundMain'
p592
sg59
S'E567'
p593
sg61
(lp594
S'10.76'
p595
aS'Bas'
p596
aS'Bastille'
p597
asg66
I00
sg67
F0
sg68
F80
sg69
I47
sg70
S''
sg71
F0
sg72
F0
sS'm'
F195350
sg73
I40
sg74
(lp598
S'11.35'
p599
aS'40'
p600
asg78
F6.9444444444444446
sg79
F25
sg80
F10760
sg81
F0
sS'x'
F10712.724648054404
sg82
(lp601
sg98
F25
sg99
(lp602
S'10.77'
p603
aS'Bas+10'
p604
aS'1'
asg103
F1783.970639740551
sba(i__main__
Tr
p605
(dp606
g3
F5560.9496107775503
sg4
(lp607
S'11.975'
p608
aS'0.35'
p609
asg8
I18
sg9
F6400
sg10
F1
sg11
F-0.80000000000000004
sg12
F11975
sg13
F6000
sg14
F11265
sg15
I01
sg16
F56.023924293560775
sg17
S'sig:EastboundMain:GdL-140'
p610
sg19
F40
sg20
I0
sg21
I9223372036854775807
sg22
F30
sg23
I0
sg24
I-1
sg25
I11
sg26
F0
sS'v'
F11.101920259389081
sg27
I698
sg28
I00
sg29
F-1
sg30
F39.966912933800693
sg31
g404
sg35
F11.111111111111111
sg36
F11650
sg37
I00
sg38
I00
sg39
I00
sg40
I9223372036854775807
sg41
S'green'
p611
sg43
F-0.00053098390560820188
sg44
F11.598047480541538
sg45
F36.826599326599307
sg46
F11723
sg47
g48
sS'a'
F0
sg49
F1
sg50
F3.7448966020968641
sg51
F0
sg52
F0
sg53
I00
sg54
F36.826599326599307
sg55
I00
sg56
F0
sg57
S'EastboundMain'
p612
sg59
S'E569'
p613
sg61
(lp614
S'11.713'
p615
aS'GdL'
p616
aS'Gare-De-Lyon'
p617
aS'X'
asg66
I00
sg67
F0
sg68
F80
sg69
I52
sg70
S''
sg71
F-0.0080000000000000002
sg72
F0
sS'm'
F195350
sg73
I41
sg74
(lp618
S'11.65'
p619
aS'30'
p620
asg78
F8.3333333333333339
sg79
F40
sg80
F11713
sg81
F0
sS'x'
F11598.047480541538
sg82
(lp621
sg98
F40
sg99
(lp622
S'11.723'
p623
aS'GdL+10'
p624
aS'1'
asba(i__main__
Tr
p625
(dp626
g3
F4469.0757127742854
sg4
(lp627
S'12.675'
p628
aS'0.0'
p629
asg8
I19
sg9
F6400
sg10
F1
sg11
F0
sg12
F12675
sg13
F6000
sg14
F12065
sg15
I00
sg16
F31.535186767151966
sg17
S'sig:EastboundMain:2181'
p630
sg19
F30
sg20
I0
sg21
I9223372036854775807
sg22
F45
sg23
I0
sg24
I-1
sg25
I12
sg26
F0
sS'v'
F8.3291386738664848
sg27
I698
sg28
I00
sg29
F-1
sg30
F29.984899225919346
sg31
g404
sg35
F0
sg36
F13250
sg37
I00
sg38
I00
sg39
I00
sg40
I9223372036854775807
sg41
S'green'
p631
sg43
F-0.0018718794013792867
sg44
F12.233453785638721
sg45
F0
sg46
F12350
sg47
g151
sS'a'
F0
sg49
F0.001954343106566133
sg50
F2.7596018169252594
sg51
F0.0034999999999999996
sg52
F0
sg53
I00
sg54
F0
sg55
I00
sg56
F-0.034334999999999997
sg57
S'EastboundMain'
p632
sg59
S'E570'
p633
sg61
(lp634
S'12.796'
p635
aS'ReD'
p636
aS'Reuilly-Diderot'
p637
asg66
I00
sg67
F0
sg68
F80
sg69
I54
sg70
S''
sg71
F0
sg72
F0
sS'm'
F195350
sg73
I42
sg74
(lp638
S'13.25'
p639
aS'45'
p640
asg78
F0
sg79
F30
sg80
F12796
sg81
F0
sS'x'
F12233.453785638721
sg82
(lp641
sg98
F30
sg99
(lp642
S'12.35'
p643
aS'2215'
p644
aS'1'
asba(i__main__
Tr
p645
(dp646
g3
F2800.009030241406
sg4
(lp647
S'12.975'
p648
aS'2.5'
p649
asg8
I20
sg9
F6400
sg10
F1
sg11
F0
sg12
F12975
sg13
F6000
sg14
F12765
sg15
I00
sg16
F0
sg17
S'sig:EastboundMain:ReD-140'
p650
sg19
F30
sg20
I0
sg21
I9223372036854775807
sg22
F45
sg23
I0
sg24
I-1
sg25
I12
sg26
F33.730000000000004
sS'v'
F0
sg27
I698
sg28
I01
sg29
F-1
sg30
F0
sg31
g404
sg35
F0
sg36
F13250
sg37
I00
sg38
I00
sg39
I01
sg40
I9223372036854775807
sg41
S'green'
p651
sg43
F0.0038382211166783334
sg44
F12.796000451512151
sg45
F0
sg46
F12806
sg47
g151
sS'a'
F0
sg49
F0.0011776998039648688
sg50
F0
sg51
F0
sg52
F0
sg53
I00
sg54
F0
sg55
I00
sg56
F0
sg57
S'EastboundMain'
p652
sg59
S'E571'
p653
sg61
(lp654
S'13.513'
p655
aS'Nat'
p656
aS'Nation'
p657
aS'X'
asg66
I00
sg67
F0
sg68
F80
sg69
I56
sg70
S''
sg71
F0.0034999999999999996
sg72
F0
sS'm'
F195350
sg73
I43
sg74
g638
sg78
F0
sg79
F30
sg80
F13513
sg81
F0
sS'x'
F12796.000451512151
sg82
(lp658
sg98
F30
sg99
(lp659
S'12.806'
p660
aS'ReD+10'
p661
aS'1'
asg103
F1783.5400000512352
sba(i__main__
Tr
p662
(dp663
g3
F2800.0213224073259
sg4
(lp664
S'13.575'
p665
aS'-0.1'
p666
asg8
I21
sg9
F6400
sg10
F1
sg11
F0
sg12
F13575
sg13
F6000
sg14
F13465
sg15
I00
sg16
F0
sg17
S'sig:EastboundMain:Nat-140'
p667
sg19
F45
sg20
I0
sg21
I9223372036854775807
sg22
F60
sg23
I0
sg24
I-1
sg25
I13
sg26
F32.129999999999995
sS'v'
F0
sg27
I698
sg28
I01
sg29
F-1
sg30
F0
sg31
g404
sg35
F0
sg36
F13600
sg37
I00
sg38
I00
sg39
I01
sg40
I9223372036854775807
sg41
S'green'
p668
sg43
F-0.00034300090809914454
sg44
F13.513001066120378
sg45
F0
sg46
F13523
sg47
g151
sS'a'
F0
sg49
F0.0010536257857084921
sg50
F0
sg51
F0
sg52
F0
sg53
I00
sg54
F0
sg55
I00
sg56
F0
sg57
S'EastboundMain'
p669
sg59
S'E572'
p670
sg61
(lp671
S'14.69'
p672
aS'PoV'
p673
aS'Porte-De-Vincennes'
p674
asg66
I00
sg67
F0
sg68
F80
sg69
I59
sg70
S''
sg71
F0.025000000000000001
sg72
F0
sS'm'
F195350
sg73
I45
sg74
(lp675
S'13.6'
p676
aS'60'
p677
asg78
F0
sg79
F45
sg80
F14690
sg81
F0
sS'x'
F13513.001066120378
sg82
(lp678
sg98
F45
sg99
(lp679
S'13.523'
p680
aS'Nat+10'
p681
aS'1'
asg103
F2563.9900000080565
sba(i__main__
Tr
p682
(dp683
g3
F6281.6860769239202
sg4
(lp684
S'15.075'
p685
aS'0.4'
p686
asg8
I22
sg9
F6400
sg10
F1
sg11
F-0.10000000000000001
sg12
F15075
sg13
F6000
sg14
F14915
sg15
I01
sg16
F71.007847400486511
sg17
S'sig:EastboundMain:StM-140'
p687
sg19
F45
sg20
I0
sg21
I9223372036854775807
sg22
F25
sg23
I0
sg24
I-1
sg25
I15
sg26
F0
sS'v'
F12.498690502651481
sg27
I698
sg28
I00
sg29
F-1
sg30
F44.995285809545337
sg31
g404
sg35
F12.5
sg36
F16700
sg37
I00
sg38
I01
sg39
I00
sg40
I9223372036854775807
sg41
S'green'
p688
sg43
F-0.0058299454622581888
sg44
F15.014084303845969
sg45
F73.653198653198643
sg46
F15044
sg47
g48
sS'a'
F0
sg49
F0.0031142849981026506
sg50
F4.5238297401280239
sg51
F0
sg52
F0
sg53
I00
sg54
F73.653198653198643
sg55
I00
sg56
F0
sg57
S'EastboundMain'
p689
sg59
S'E574'
p690
sg61
(lp691
S'15.184'
p692
aS'StM'
p693
aS'Saint-Mande'
p694
asg66
I00
sg67
F0
sg68
F80
sg69
I65
sg70
S''
sg71
F-0.02
sg72
F0
sS'm'
F195350
sg73
I49
sg74
(lp695
S'16.7'
p696
aS'25'
p697
asg78
F6.9444444444444446
sg79
F45
sg80
F15184
sg81
F0
sS'x'
F15014.08430384597
sg82
(lp698
sg98
F45
sg99
(lp699
S'15.044'
p700
aS'StM-140'
p701
aS'1'
asg103
F144.81832063602189
sba(i__main__
Tr
p702
(dp703
g3
F6243.3756587650387
sg4
(lp704
S'16.175'
p705
aS'0.7'
p706
asg8
I24
sg9
F6400
sg10
F1
sg11
F-2
sg12
F16175
sg13
F6000
sg14
F16114.999999999998
sg15
I01
sg16
F70.98115565659576
sg17
S'sig:EastboundMain:2590'
p707
sg19
F45
sg20
I0
sg21
I9223372036854775807
sg22
F25
sg23
I0
sg24
I-1
sg25
I15
sg26
F0
sS'v'
F12.496341162296694
sg27
I698
sg28
I00
sg29
F-1
sg30
F44.986828184268099
sg31
g404
sg35
F12.5
sg36
F16700
sg37
I00
sg38
I00
sg39
I00
sg40
I9223372036854775807
sg41
S'green'
p708
sg43
F-0.0004349164402583121
sg44
F16.129168782938599
sg45
F73.653198653198643
sg46
F16520
sg47
g48
sS'a'
F0
sg49
F0.0022445488694049546
sg50
F4.5224312551330801
sg51
F0
sg52
F0
sg53
I00
sg54
F73.653198653198643
sg55
I00
sg56
F0
sg57
S'EastboundMain'
p709
sg59
S'E576'
p710
sg61
(lp711
S'16.865'
p712
aS'ChV'
p713
aS'Chateau-De-Vincennes'
p714
asg66
I00
sg67
F0
sg68
F80
sg69
I70
sg70
S''
sg71
F-0.02
sg72
F0
sS'm'
F195350
sg73
I54
sg74
g695
sg78
F6.9444444444444446
sg79
F45
sg80
F16865
sg81
F0
sS'x'
F16129.168782938601
sg82
(lp715
sg98
F45
sg99
(lp716
S'16.52'
p717
aS'2632'
p718
aS'1'
asg103
F253.06574194773413
sba(i__main__
Tr
p719
(dp720
g3
F2800.0032402228076
sg4
(lp721
S'16.775'
p722
aS'0.0'
p723
asg8
I24
sg9
F6400
sg10
F1
sg11
F0
sg12
I9223372036854775807
sg13
F6000
sg14
I9223372036854775807
sg15
I00
sg16
F0
sg17
S'sig:EastboundMain:Chv+10'
p724
sg19
F25
sg20
I0
sg21
I9223372036854775807
sg22
F15
sg23
I0
sg24
I-1
sg25
I16
sg26
F35.914999999999999
sS'v'
F0
sg27
I698
sg28
I01
sg29
F-1
sg30
F0
sg31
g404
sg35
F6.9444444444444446
sg36
F16900
sg37
I00
sg38
I00
sg39
I01
sg40
I9223372036854775807
sg41
S'green'
p725
sg43
F-0.0058237509009690987
sg44
F16.865000162007867
sg45
F21.043771043771041
sg46
F16870
sg47
g48
sS'a'
F0
sg49
F1
sg50
F0
sg51
F0
sg52
F0
sg53
I00
sg54
F21.043771043771041
sg55
I00
sg56
F0
sg57
S'EastboundMain'
p726
sg59
S'E577'
p727
sg61
g711
sg66
I00
sg67
F0
sg68
F80
sg69
I73
sg70
S''
sg71
F0.0069999999999999993
sg72
F0
sS'm'
F195350
sg73
I55
sg74
(lp728
S'16.9'
p729
aS'15'
p730
asg78
F4.166666666666667
sg79
F25
sg80
I9223372036854775807
sg81
F0
sS'x'
F16865.000162007866
sg82
(lp731
sg98
F25
sg99
(lp732
S'16.870'
p733
aS'FontenayExit4D'
p734
aS'4D'
p735
aS'Main:EastboundMain'
p736
aS'Branch:FontenayExit'
p737
aS'BranchOrientation:Right'
p738
asg103
F1478.6200000272256
sbasg98
F70
sg99
(lp739
S'1.012'
p740
aS'Ber-140'
p741
aS'1'
asg103
F39.133787892295601
sb.