(i__main__
Tr
p1
(dp2
S'mechWear'
p3
F17335722.332067255
sS'nextGRD'
p4
(lp5
S'0.0'
p6
aS'0.0'
p7
asS'STAcnt'
p8
I26
sS'maxSquareSpeed'
p9
F25899.752356000001
sS'consumptionCutOff'
p10
F1
sS'grade'
p11
F0
sS'nGRDx'
p12
I9223372036854775807
sS'admissionWear'
p13
F12240100
sS'transitionGRDx'
p14
I9223372036854775807
sS'coasting'
p15
I00
sS'BDzero'
p16
F48.228268193549205
sS'redisSIG'
p17
S'sig:WestRuislip:NOT+100'
p18
sS'maxTIV'
p19
F64.373599999999996
sS'CRVcnt'
p20
I0
sS'nCRVx'
p21
I9223372036854775807
sS'nTIVvl'
p22
F40.233499999999999
sS'trip'
p23
I11
sS'pathCnt'
p24
I-1
sS'TIVcnt'
p25
I7
sS'waitSta'
p26
F0
sS'v'
F10.303364691668815
sS'pax'
p27
I930
sS'startingPhase'
p28
I00
sS'advTIV'
p29
F-1
sS'vK'
p30
F37.092112890007733
sS'nextCRV'
p31
(lp32
S'0.0'
p33
aS'0.0'
p34
asS'cv'
p35
F17.881555555555554
sS'nTIVx'
p36
F49889.539999999994
sS'sigBrake'
p37
I00
sS'sigSpotted'
p38
I00
sS'inSta'
p39
I00
sS'transitionCRVx'
p40
I9223372036854775807
sS'advSIGcol'
p41
S'green'
p42
sS'aGaussFactor'
p43
F-0.003962969113540194
sS'PK'
p44
F48.67457260639344
sS'deltaBDtiv'
p45
F132.85068680082065
sS'nSIGx'
p46
F48722.768499999998
sS'nTIVtype'
p47
S'DEC'
p48
sS'a'
F0.55459196811553013
sS'ratioGRD'
p49
F1
sS'power'
p50
F1450087.1258848386
sS'gradient'
p51
F0
sS'BDsta'
p52
F0
sS'initSwitchSeg'
p53
I00
sS'BDtiv'
p54
F132.85068680082065
sS'staBrake'
p55
I00
sS'waitReact'
p56
F0
sS'aFull'
p57
F0.55459196811553013
sS'segment'
p58
S'WestRuislip'
p59
sS'name'
p60
S'MAIN1'
p61
sS'nextSTA'
p62
(lp63
S'49.560912772'
p64
aS'SBU'
p65
aS'Shepherds-Bush'
p66
asS'react'
p67
I00
sS'atSig'
p68
I00
sS'deltaBDsta'
p69
F0
sS'tgtVk'
p70
F160.934
sS'SIGcnt'
p71
I65
sS'pathBranch'
p72
S''
sS'oldGradient'
p73
F0
sS'critVk'
p74
F0
sS'm'
F249750
sS'GRDcnt'
p75
I0
sS'nextTIV'
p76
(lp77
S'49.88954'
p78
aS'40.2335'
p79
asS'nv'
p80
F11.175972222222223
sS'maxVk'
p81
F64.373599999999996
sS'nSTAx'
p82
F49560.912772000003
sS'DBrt'
p83
F0
sS'x'
F48674.572606393442
sS'trs'
p84
(lp85
(i__main__
Tr
p86
(dp87
g3
F17300158.545609143
sg4
g5
sg8
I28
sg9
F25899.752356000001
sg10
F1
sg11
F0
sg12
I9223372036854775807
sg13
F12240100
sg14
I9223372036854775807
sg15
I01
sg16
F56.673622490811489
sg17
S'sig:WestRuislip:WCI+100'
p88
sg19
F40.233499999999999
sg20
I0
sg21
I9223372036854775807
sg22
F80.466999999999999
sg23
I11
sg24
I-1
sg25
I8
sg26
F0
sS'v'
F11.166108072188146
sg27
I930
sg28
I00
sg29
F-1
sg30
F40.19798905987733
sg31
g32
sg35
F17.881555555555554
sg36
F51659.813999999998
sg37
I00
sg38
I00
sg39
I00
sg40
I9223372036854775807
sg41
S'green'
p89
sg43
F-0.0033718002741652152
sg44
F51.160091428375694
sg45
F0
sg46
F51498.879999999997
sg47
S'INC'
p90
sS'a'
F0
sg49
F1
sg50
F3.7784706270649595
sg51
F0
sg52
F0
sg53
I00
sg54
F132.85068680082065
sg55
I00
sg56
F0
sg57
F0
sg58
S'WestRuislip'
p91
sg60
S'MAIN14'
p92
sg62
(lp93
S'52.968368354'
p94
aS'EAC'
p95
aS'East-Acton'
p96
asg67
I00
sg68
I00
sg69
F0
sg70
F160.934
sg71
I69
sg72
S''
sg73
F0
sg74
F0
sS'm'
F249750
sg75
I0
sg76
(lp97
S'51.659814'
p98
aS'80.467'
p99
asg80
F11.175972222222223
sg81
F40.233499999999999
sg82
F52968.368353999998
sg83
F0
sS'x'
F51160.091428375694
sg84
(lp100
sS'cTIVvl'
p101
F40.233499999999999
sS'nextSIG'
p102
(lp103
S'51.49888'
p104
aS'32000'
p105
aS'1'
asS'brakeWear'
p106
F1785914.0199804245
sba(i__main__
Tr
p107
(dp108
g3
F17304620.749761183
sg4
g5
sg8
I29
sg9
F25899.752356000001
sg10
F1
sg11
F0
sg12
I9223372036854775807
sg13
F12240100
sg14
I9223372036854775807
sg15
I00
sg16
F109.34141356930884
sg17
S'sig:WestRuislip:33500'
p109
sg19
F72.420299999999997
sg20
I0
sg21
I9223372036854775807
sg22
F96.560400000000001
sg23
I11
sg24
I-1
sg25
I10
sg26
F0
sS'v'
F15.504210179512688
sg27
I930
sg28
I00
sg29
F-1
sg30
F55.815156646245676
sg31
g32
sg35
F22.351944444444445
sg36
F56326.900000000001
sg37
I00
sg38
I00
sg39
I00
sg40
I9223372036854775807
sg41
S'green'
p110
sg43
F0.0026861519331335898
sg44
F54.954504123972661
sg45
F0
sg46
F55065.177439999999
sg47
g90
sS'a'
F-1.1000000000000001
sg49
F1
sg50
F0
sg51
F0
sg52
F0
sg53
I00
sg54
F64.722129467066509
sg55
I01
sg56
F0
sg57
F-1.1000000000000001
sg58
S'WestRuislip'
p111
sg60
S'MAIN2'
p112
sg62
(lp113
S'55.063729034'
p114
aS'NAC'
p115
aS'North-Acton'
p116
asg67
I00
sg68
I00
sg69
F0
sg70
F160.934
sg71
I73
sg72
S''
sg73
F0
sg74
F0
sS'm'
F249750
sg75
I0
sg76
(lp117
S'56.3269'
p118
aS'96.5604'
p119
asg80
F20.11675
sg81
F72.420299999999997
sg82
F55063.729033999996
sg83
F0
sS'x'
F54954.504123972663
sg84
(lp120
sg101
F72.420299999999997
sg102
(lp121
S'55.06517744'
p122
aS'NAC+100'
p123
aS'1'
asg106
F1787333.3499803822
sba(i__main__
Tr
p124
(dp125
g3
F17269417.724127278
sg4
g5
sg8
I31
sg9
F25899.752356000001
sg10
F1
sg11
F0
sg12
I9223372036854775807
sg13
F12240100
sg14
I9223372036854775807
sg15
I00
sg16
F168.30725476905826
sg17
S'sig:WestRuislip:36500'
p126
sg19
F96.560400000000001
sg20
I0
sg21
I9223372036854775807
sg22
F64.373599999999996
sg23
I11
sg24
I0
sg25
I11
sg26
F0
sS'v'
F19.242845024066295
sg27
I930
sg28
I00
sg29
F-1
sg30
F69.274242086638665
sg31
g32
sg35
F26.822333333333333
sg36
F72903.101999999999
sg37
I00
sg38
I00
sg39
I00
sg40
I9223372036854775807
sg41
S'green'
p127
sg43
F0.00097640411639843283
sg44
F58.769959552773997
sg45
F272.51422933501681
sS'sigPoll'
p128
F245.72999999999999
sg46
F59545.580000000002
sg47
g48
sS'a'
F0.057809600604972047
sg49
F1
sg50
F283162.12175803655
sg51
F0
sg52
F0
sg53
I00
sg54
F272.51422933501681
sg55
I00
sg56
F0
sg57
F0.057809600604972047
sg58
S'WestRuislip'
p129
sg60
S'MAIN15'
p130
sg62
(lp131
S'60.766908126'
p132
aS'PVL'
p133
aS'Perivale'
p134
asg67
I00
sg68
I00
sg69
F0
sg70
F160.934
sg71
I79
sg72
S'WestRuislip'
p135
sg73
F0
sg74
F0
sS'm'
F249750
sg75
I0
sg76
(lp136
S'72.903102'
p137
aS'64.3736'
p138
asg80
F17.881555555555554
sg81
F96.560400000000001
sg82
F60766.908125999995
sg83
F0
sS'x'
F58769.959552773995
sg84
(lp139
sg101
F96.560400000000001
sg102
(lp140
S'59.54558'
p141
aS'37000'
p142
aS'1'
asg106
F1783253.2299804587
sba(i__main__
Tr
p143
(dp144
g3
F17376298.900663842
sg4
g5
sg8
I36
sg9
F25899.752356000001
sg10
F1
sg11
F0
sg12
I9223372036854775807
sg13
F12240100
sg14
I9223372036854775807
sg15
I01
sg16
F36.313701245420589
sg17
S'sig:WestRuislip:WRL-200'
p145
sg19
F32.186799999999998
sg20
I0
sg21
I9223372036854775807
sg22
F32.186799999999998
sg23
I11
sg24
I0
sg25
I12
sg26
F0
sS'v'
F8.9381285927158878
sg27
I930
sg28
I00
sg29
F-1
sg30
F32.1772629337772
sg31
g32
sg35
F17.881555555555554
sg36
I9223372036854775807
sg37
I00
sg38
I00
sg39
I00
sg40
I9223372036854775807
sg41
S'green'
p146
sg43
F-0.0018256886222167857
sg44
F74.080950679500631
sg45
F163.50853760101006
sg46
F74304.998074000003
sg47
g48
sS'a'
F0
sg49
F1
sg50
F2.7254851090811822
sg51
F0
sg52
F0
sg53
I00
sg54
F163.50853760101006
sg55
I00
sg56
F0
sg57
F0
sg58
S'WestRuislip'
p147
sg60
S'MAIN3'
p148
sg62
(lp149
S'74.195723888'
p150
aS'WRL'
p151
aS'West-Ruislip'
p152
asg67
I00
sg68
I00
sg69
F0
sg70
F160.934
sg71
I98
sg72
S'WestRuislip'
p153
sg73
F0
sg74
F0
sS'm'
F249750
sg75
I0
sg76
(lp154
S'74.02964'
p155
aS'32.1868'
p156
asg80
F8.940777777777777
sg81
F32.186799999999998
sg82
F74195.723888000008
sg83
F0
sS'x'
F74080.950679500631
sg84
(lp157
sg101
F64.373599999999996
sg102
(lp158
S'74.304998074'
p159
aS'WRL+100'
p160
aS'3'
asg106
F1794120.2399801558
sba(i__main__
Tr
p161
(dp162
g3
F17380023.52002386
sg4
(lp163
S'0.0'
p164
aS'0.0'
p165
asg8
I4
sg9
F25899.752356000001
sg10
F1
sg11
F0
sg12
I9223372036854775807
sg13
F12240100
sg14
I9223372036854775807
sg15
I00
sg16
F180.0850799737037
sg17
S'sig:Epping:3500'
p166
sg19
F96.560400000000001
sg20
I0
sg21
I9223372036854775807
sg22
F72.420299999999997
sg23
I12
sg24
I-1
sg25
I1
sg26
F0
sS'v'
F19.904604554941479
sg27
I930
sg28
I00
sg29
F-1
sg30
F71.656576397789323
sg31
(lp167
S'0.0'
p168
aS'0.0'
p169
asg35
F26.822333333333333
sg36
F16093.4
sg37
I00
sg38
I00
sg39
I00
sg40
I9223372036854775807
sg41
S'green'
p170
sg43
F0.00069667923282715552
sg44
F5.7041130887146965
sg45
F214.60495560132574
sg46
F6598.2939999999999
sg47
g48
sS'a'
F0.030679182610112141
sg49
F1
sg50
F155501.93108958731
sg51
F0
sg52
F0
sg53
I00
sg54
F214.60495560132574
sg55
I00
sg56
F0
sg57
F0.030679182610112141
sg58
S'Epping'
p171
sg60
S'BRCH7'
p172
sg62
(lp173
S'8.1629909084'
p174
aS'NHO'
p175
aS'Northolt'
p176
asg67
I00
sg68
I00
sg69
F0
sg70
F160.934
sg71
I9
sg72
S''
sg73
F0
sg74
F0
sS'm'
F249750
sg75
I0
sg76
(lp177
S'16.0934'
p178
aS'72.4203'
p179
asg80
F20.11675
sg81
F96.560400000000001
sg82
F8162.9909083999992
sg83
F0
sS'x'
F5704.1130887146965
sg84
(lp180
sg101
F96.560400000000001
sg102
(lp181
S'6.598294'
p182
aS'4100'
p183
aS'1'
asg106
F1786283.0699805277
sba(i__main__
Tr
p184
(dp185
g3
F17483991.519280456
sg4
g163
sg8
I9
sg9
F25899.752356000001
sg10
F1
sg11
F0
sg12
I9223372036854775807
sg13
F12240100
sg14
I9223372036854775807
sg15
I00
sg16
F182.93915371243767
sg17
S'sig:Epping:12850'
p186
sg19
F88.5137
sg20
I0
sg21
I9223372036854775807
sg22
F40.233499999999999
sg23
I12
sg24
I-1
sg25
I3
sg26
F0
sS'v'
F20.061680255282003
sg27
I930
sg28
I00
sg29
F-1
sg30
F72.222048919015208
sg31
g167
sg35
F24.587138888888887
sg36
F22530.760000000002
sg37
I00
sg38
I01
sg39
I00
sg40
I9223372036854775807
sg41
S'green'
p187
sg43
F0.0024541208222368972
sg44
F20.650768234724509
sg45
F327.01707520202007
sg46
F20680.019
sg47
g48
sS'a'
F0.024307597958727067
sg49
F1
sg50
F124192.1357343408
sg51
F0
sg52
F0
sg53
I00
sg54
F327.01707520202007
sg55
I00
sg56
F0
sg57
F0.024307597958727067
sg58
S'Epping'
p188
sg60
S'BRCH8'
p189
sg62
(lp190
S'21.518967942'
p191
aS'EAC'
p192
aS'East-Acton'
p193
asg67
I00
sg68
I00
sg69
F0
sg70
F160.934
sg71
I24
sg72
S''
sg73
F0
sg74
F0
sS'm'
F249750
sg75
I0
sg76
(lp194
S'22.53076'
p195
aS'40.2335'
p196
asg80
F11.175972222222223
sg81
F88.5137
sg82
F21518.967941999999
sg83
F0
sS'x'
F20650.76823472451
sg84
(lp197
sg101
F88.5137
sg102
(lp198
S'20.680019'
p199
aS'12850'
p200
aS'1'
asg106
F1776618.7999807515
sba(i__main__
Tr
p201
(dp202
g3
F17440769.952643294
sg4
g163
sg8
I13
sg9
F25899.752356000001
sg10
F1
sg11
F0
sg12
I9223372036854775807
sg13
F12240100
sg14
I9223372036854775807
sg15
I00
sg16
F59.31635333557432
sg17
S'sig:Epping:HPA+100'
p203
sg19
F64.373599999999996
sg20
I0
sg21
I9223372036854775807
sg22
F24.1401
sg23
I12
sg24
I-1
sg25
I5
sg26
F0
sS'v'
F11.417983590317952
sg27
I930
sg28
I00
sg29
F-1
sg30
F41.104740925144633
sg31
g167
sg35
F17.881555555555554
sg36
F35003.145000000004
sg37
I00
sg38
I00
sg39
I00
sg40
I9223372036854775807
sg41
S'green'
p204
sg43
F-3.0920520228925153e-05
sg44
F26.689116268724909
sg45
F187.35353266782403
sg46
F26857.631523999997
sg47
g48
sS'a'
F-1.1000000000000001
sg49
F1
sg50
F0
sg51
F0
sg52
F0
sg53
I00
sg54
F187.35353266782403
sg55
I01
sg56
F0
sg57
F-1.1000000000000001
sg58
S'Epping'
p205
sg60
S'MAIN7'
p206
sg62
(lp207
S'26.748357338'
p208
aS'NOT'
p209
aS'Notting-Hill-Gate'
p210
aS'X'
asg67
I00
sg68
I00
sg69
F0
sg70
F160.934
sg71
I33
sg72
S''
sg73
F0
sg74
F0
sS'm'
F249750
sg75
I0
sg76
(lp211
S'35.003145'
p212
aS'24.1401'
p213
asg80
F6.7055833333333332
sg81
F64.373599999999996
sg82
F26748.357338000002
sg83
F0
sS'x'
F26689.116268724909
sg84
(lp214
sg101
F64.373599999999996
sg102
(lp215
S'26.857631524'
p216
aS'NOT+100'
p217
aS'1'
asg106
F1781098.2199806215
sba(i__main__
Tr
p218
(dp219
g3
F17382235.519824948
sg4
g163
sg8
I23
sg9
F25899.752356000001
sg10
F1
sg11
F0
sg12
I9223372036854775807
sg13
F12240100
sg14
I9223372036854775807
sg15
I01
sg16
F20.414470984840591
sg17
S'sig:Epping:SPA+100'
p220
sg19
F24.1401
sg20
I0
sg21
I9223372036854775807
sg22
F48.280200000000001
sg23
I12
sg24
I-1
sg25
I6
sg26
F0
sS'v'
F6.7016293665532789
sg27
I930
sg28
I00
sg29
F-1
sg30
F24.125865719591804
sg31
g167
sg35
F17.881555555555554
sg36
F35968.749000000003
sg37
I00
sg38
I00
sg39
I00
sg40
I9223372036854775807
sg41
S'green'
p221
sg43
F0.0012283644020001185
sg44
F35.241655914172753
sg45
F0
sg46
F35804.113517999998
sg47
g90
sS'a'
F0
sg49
F1
sg50
F1.8684085148268961
sg51
F0
sg52
F0
sg53
I00
sg54
F187.35353266782403
sg55
I00
sg56
F0
sg57
F0
sg58
S'Epping'
p222
sg60
S'MAIN8'
p223
sg62
(lp224
S'35.694839332'
p225
aS'BNK'
p226
aS'Bank'
p227
aS'X'
asg67
I00
sg68
I00
sg69
F0
sg70
F160.934
sg71
I46
sg72
S''
sg73
F0
sg74
F0
sS'm'
F249750
sg75
I0
sg76
(lp228
S'35.968749'
p229
aS'48.2802'
p230
asg80
F6.7055833333333332
sg81
F24.1401
sg82
F35694.839332000003
sg83
F0
sS'x'
F35241.655914172756
sg84
(lp231
sg101
F24.1401
sg102
(lp232
S'35.804113518'
p233
aS'BNK+100'
p234
aS'1'
asg106
F1796629.779980279
sba(i__main__
Tr
p235
(dp236
g3
F17326632.32785191
sg4
g163
sg8
I27
sg9
F25899.752356000001
sg10
F1
sg11
F0
sg12
I9223372036854775807
sg13
F12240100
sg14
I9223372036854775807
sg15
I00
sg16
F159.47664930964959
sg17
S'sig:Epping:MIL+100'
p237
sg19
F80.466999999999999
sg20
I0
sg21
I9223372036854775807
sg22
F64.373599999999996
sg23
I12
sg24
I-1
sg25
I8
sg26
F0
sS'v'
F18.731349461762008
sg27
I930
sg28
I00
sg29
F-1
sg30
F67.432858062343229
sg31
g167
sg35
F22.351944444444445
sg36
F46670.860000000001
sg37
I00
sg38
I00
sg39
I00
sg40
I9223372036854775807
sg41
S'green'
p238
sg43
F-0.0015546463454469519
sg44
F42.519388514632261
sg45
F122.63140320075763
sg46
F42808.444000000003
sg47
g48
sS'a'
F0.079141836730732357
sg49
F1
sg50
F377239.98130890587
sg51
F0
sg52
F0
sg53
I00
sg54
F122.63140320075763
sg55
I00
sg56
F0
sg57
F0.079141836730732357
sg58
S'Epping'
p239
sg60
S'MAIN9'
p240
sg62
(lp241
S'45.515997616'
p242
aS'STR'
p243
aS'Stratford'
p244
aS'X'
asg67
I00
sg68
I00
sg69
F0
sg70
F160.934
sg71
I55
sg72
S''
sg73
F0
sg74
F0
sS'm'
F249750
sg75
I0
sg76
(lp245
S'46.67086'
p246
aS'64.3736'
p247
asg80
F17.881555555555554
sg81
F80.466999999999999
sg82
F45515.997616000001
sg83
F0
sS'x'
F42519.388514632265
sg84
(lp248
sg101
F80.466999999999999
sg102
(lp249
S'42.808444'
p250
aS'26600'
p251
aS'1'
asg106
F1796275.2499803475
sba(i__main__
Tr
p252
(dp253
g3
F17304820.201328184
sg4
g163
sg8
I30
sg9
F25899.752356000001
sg10
F1
sg11
F0
sg12
I9223372036854775807
sg13
F12240100
sg14
I9223372036854775807
sg15
I00
sg16
F44.756818816343596
sg17
S'sig:Epping:31900'
p254
sg19
F96.560400000000001
sg20
I0
sg21
I9223372036854775807
sg22
F40.233499999999999
sg23
I11
sg24
I0
sg25
I10
sg26
F0
sS'v'
F9.9174532597889389
sg27
I930
sg28
I00
sg29
F-1
sg30
F35.702831735240181
sg31
g167
sg35
F26.822333333333333
sg36
F73707.772000000012
sg37
I00
sg38
I00
sg39
I00
sg40
I9223372036854775807
sg41
S'green'
p255
sg43
F0.00023263661732064847
sg44
F52.012673558089062
sg45
F405.36491613583757
sg46
F52166.595165999999
sg47
g48
sS'a'
F-1.1000000000000001
sg49
F1
sg50
F0
sg51
F0
sg52
F0
sg53
I00
sg54
F405.36491613583757
sg55
I01
sg56
F0
sg57
F-1.1000000000000001
sg58
S'Epping'
p256
sg60
S'MAIN11'
p257
sg62
(lp258
S'52.05732098'
p259
aS'SNR'
p260
aS'Snaresbrook'
p261
asg67
I00
sg68
I00
sg69
F0
sg70
F160.934
sg71
I67
sg72
S'Epping'
p262
sg73
F0
sg74
F0
sS'm'
F249750
sg75
I0
sg76
(lp263
S'73.707772'
p264
aS'40.2335'
p265
asg80
F11.175972222222223
sg81
F96.560400000000001
sg82
F52057.320979999997
sg83
F0
sS'x'
F52012.67355808906
sg84
(lp266
sg101
F96.560400000000001
sg102
(lp267
S'52.166595166'
p268
aS'SNR+100'
p269
aS'1'
asg106
F1796783.449980269
sba(i__main__
Tr
p270
(dp271
g3
F17304605.905946083
sg4
g163
sg8
I34
sg9
F25899.752356000001
sg10
F1
sg11
F0
sg12
I9223372036854775807
sg13
F12240100
sg14
I9223372036854775807
sg15
I00
sg16
F147.79058879464108
sg17
S'sig:Epping:BHH+100'
p272
sg19
F96.560400000000001
sg20
I0
sg21
I9223372036854775807
sg22
F40.233499999999999
sg23
I11
sg24
I0
sg25
I10
sg26
F0
sS'v'
F18.032163876185951
sg27
I930
sg28
I00
sg29
F-1
sg30
F64.915789954269428
sg31
g167
sg35
F26.822333333333333
sg36
F73707.772000000012
sg37
I00
sg38
I00
sg39
I00
sg40
I9223372036854775807
sg41
S'green'
p273
sg43
F-0.002133240316697415
sg44
F59.600103543816935
sg45
F405.36491613583757
sg46
F59786.981
sg47
g48
sS'a'
F0.10891097757357607
sg49
F1
sg50
F499575.34334827098
sg51
F0
sg52
F0
sg53
I00
sg54
F405.36491613583757
sg55
I00
sg56
F0
sg57
F0.10891097757357607
sg58
S'Epping'
p274
sg60
S'MAIN18'
p275
sg62
(lp276
S'61.532149296'
p277
aS'LOU'
p278
aS'Loughton'
p279
asg67
I00
sg68
I00
sg69
F0
sg70
F160.934
sg71
I76
sg72
S'Epping'
p280
sg73
F0
sg74
F0
sS'm'
F249750
sg75
I0
sg76
g263
sg80
F11.175972222222223
sg81
F96.560400000000001
sg82
F61532.149296000003
sg83
F0
sS'x'
F59600.103543816935
sg84
(lp281
sg101
F96.560400000000001
sg102
(lp282
S'59.786981'
p283
aS'37150'
p284
aS'1'
asg106
F1803301.7199799002
sba(i__main__
Tr
p285
(dp286
g3
F17311316.40499948
sg4
g163
sg8
I36
sg9
F25899.752356000001
sg10
F1
sg11
F0
sg12
I9223372036854775807
sg13
F12240100
sg14
I9223372036854775807
sg15
I00
sg16
F161.78402691528453
sg17
S'sig:Epping:DBD+100'
p287
sg19
F96.560400000000001
sg20
I0
sg21
I9223372036854775807
sg22
F40.233499999999999
sg23
I11
sg24
I0
sg25
I10
sg26
F0
sS'v'
F18.866338323370371
sg27
I930
sg28
I00
sg29
F-1
sg30
F67.918817964133339
sg31
g167
sg35
F26.822333333333333
sg36
F73707.772000000012
sg37
I00
sg38
I00
sg39
I00
sg40
I9223372036854775807
sg41
S'green'
p288
sg43
F-0.0023017037839974945
sg44
F65.019211685582775
sg45
F405.36491613583757
sg46
F65339.203999999998
sg47
g48
sS'a'
F0.073478239318319705
sg49
F1
sg50
F352793.78155253385
sg51
F0
sg52
F0
sg53
I00
sg54
F405.36491613583757
sg55
I00
sg56
F0
sg57
F0.073478239318319705
sg58
S'Epping'
p289
sg60
S'MAIN12'
p290
sg62
(lp291
S'69.130326238'
p292
aS'THB'
p293
aS'Theydon-Bois'
p294
asg67
I00
sg68
I00
sg69
F0
sg70
F160.934
sg71
I82
sg72
S'Epping'
p295
sg73
F0
sg74
F0
sS'm'
F249750
sg75
I0
sg76
g263
sg80
F11.175972222222223
sg81
F96.560400000000001
sg82
F69130.326237999994
sg83
F0
sS'x'
F65019.21168558277
sg84
(lp296
sg101
F96.560400000000001
sg102
(lp297
S'65.339204'
p298
aS'40600'
p299
aS'1'
asg106
F1803322.2899799573
sba(i__main__
Tr
p300
(dp301
g3
F17309145.708256327
sg4
g5
sg8
I1
sg9
F25899.752356000001
sg10
F1
sg11
F0
sg12
I9223372036854775807
sg13
F12240100
sg14
I9223372036854775807
sg15
I00
sg16
F177.59689088952206
sg17
S'sig:WestRuislip:900'
p302
sg19
F96.560400000000001
sg20
I0
sg21
I9223372036854775807
sg22
F72.420299999999997
sg23
I12
sg24
I-1
sg25
I1
sg26
F0
sS'v'
F19.766647018781686
sg27
I930
sg28
I00
sg29
F-1
sg30
F71.159929267614075
sg31
g32
sg35
F26.822333333333333
sg36
F24140.099999999999
sg37
I00
sg38
I00
sg39
I00
sg40
I9223372036854775807
sg41
S'green'
p303
sg43
F-0.0008171505827679848
sg44
F1.5042555173987397
sg45
F214.60495560132574
sg46
F2414.0100000000002
sg47
g48
sS'a'
F0.036295690867266056
sg49
F1
sg50
F182678.9118744364
sg51
F0
sg52
F0
sg53
I00
sg54
F214.60495560132574
sg55
I00
sg56
F0
sg57
F0.036295690867266056
sg58
S'WestRuislip'
p304
sg60
S'MAIN13'
p305
sg62
(lp306
S'5.3751795066'
p307
aS'THB'
p308
aS'Theydon-Bois'
p309
asg67
I00
sg68
I00
sg69
F0
sg70
F160.934
sg71
I4
sg72
S''
sg73
F0
sg74
F0
sS'm'
F249750
sg75
I0
sg76
(lp310
S'24.1401'
p311
aS'72.4203'
p312
asg80
F20.11675
sg81
F96.560400000000001
sg82
F5375.1795066000004
sg83
F0
sS'x'
F1504.2555173987398
sg84
(lp313
sg101
F96.560400000000001
sg102
(lp314
S'2.41401'
p315
aS'1500'
p316
aS'1'
asg106
F1795857.7999800979
sba(i__main__
Tr
p317
(dp318
g3
F17386329.004039582
sg4
g5
sg8
I5
sg9
F25899.752356000001
sg10
F1
sg11
F0
sg12
I9223372036854775807
sg13
F12240100
sg14
I9223372036854775807
sg15
I00
sg16
F139.40350405587228
sg17
S'sig:WestRuislip:10800'
p319
sg19
F96.560400000000001
sg20
I0
sg21
I9223372036854775807
sg22
F72.420299999999997
sg23
I12
sg24
I-1
sg25
I1
sg26
F0
sS'v'
F17.507001503866288
sg27
I930
sg28
I00
sg29
F-1
sg30
F63.025205413918641
sg31
g32
sg35
F26.822333333333333
sg36
F24140.099999999999
sg37
I00
sg38
I00
sg39
I00
sg40
I9223372036854775807
sg41
S'green'
p320
sg43
F-0.0031852994486191266
sg44
F17.917720713014155
sg45
F214.60495560132574
sg46
F18166.229919999998
sg47
g48
sS'a'
F-1.1000000000000001
sg49
F1
sg50
F0
sg51
F0
sg52
F0
sg53
I00
sg54
F214.60495560132574
sg55
I01
sg56
F0
sg57
F-1.1000000000000001
sg58
S'WestRuislip'
p321
sg60
S'BRCH9'
p322
sg62
(lp323
S'18.056955734'
p324
aS'WOO'
p325
aS'Woodford'
p326
asg67
I00
sg68
I00
sg69
F0
sg70
F160.934
sg71
I24
sg72
S''
sg73
F0
sg74
F0
sS'm'
F249750
sg75
I0
sg76
g310
sg80
F20.11675
sg81
F96.560400000000001
sg82
F18056.955733999999
sg83
F0
sS'x'
F17917.720713014154
sg84
(lp327
sg101
F96.560400000000001
sg102
(lp328
S'18.16622992'
p329
aS'WOO+100'
p330
aS'1'
asg106
F1788599.0099804469
sba(i__main__
Tr
p331
(dp332
g3
F17361519.23068006
sg4
g5
sg8
I7
sg9
F25899.752356000001
sg10
F1
sg11
F0
sg12
I9223372036854775807
sg13
F12240100
sg14
I9223372036854775807
sg15
I00
sg16
F167.20256896915447
sg17
S'sig:WestRuislip:SWO+100'
p333
sg19
F96.560400000000001
sg20
I0
sg21
I9223372036854775807
sg22
F72.420299999999997
sg23
I12
sg24
I-1
sg25
I1
sg26
F0
sS'v'
F19.179604835312013
sg27
I930
sg28
I00
sg29
F-1
sg30
F69.046577407123252
sg31
g32
sg35
F26.822333333333333
sg36
F24140.099999999999
sg37
I00
sg38
I00
sg39
I00
sg40
I9223372036854775807
sg41
S'green'
p334
sg43
F8.334751907748755e-05
sg44
F21.305372017381117
sg45
F214.60495560132574
sg46
F21484.688999999998
sg47
g48
sS'a'
F0.060428762607290833
sg49
F1
sg50
F295007.92977186316
sg51
F0
sg52
F0
sg53
I00
sg54
F214.60495560132574
sg55
I00
sg56
F0
sg57
F0.060428762607290833
sg58
S'WestRuislip'
p335
sg60
S'MAIN16'
p336
sg62
(lp337
S'22.430015316'
p338
aS'SNR'
p339
aS'Snaresbrook'
p340
asg67
I00
sg68
I00
sg69
F0
sg70
F160.934
sg71
I28
sg72
S''
sg73
F0
sg74
F0
sS'm'
F249750
sg75
I0
sg76
g310
sg80
F20.11675
sg81
F96.560400000000001
sg82
F22430.015315999997
sg83
F0
sS'x'
F21305.372017381116
sg84
(lp341
sg101
F96.560400000000001
sg102
(lp342
S'21.484689'
p343
aS'13530'
p344
aS'1'
asg106
F1770609.939980868
sba(i__main__
Tr
p345
(dp346
g3
F17415091.80103967
sg4
g5
sg8
I9
sg9
F25899.752356000001
sg10
F1
sg11
F0
sg12
I9223372036854775807
sg13
F12240100
sg14
I9223372036854775807
sg15
I00
sg16
F82.689331061128087
sg17
S'sig:WestRuislip:LYS+100'
p347
sg19
F72.420299999999997
sg20
I0
sg21
I9223372036854775807
sg22
F80.466999999999999
sg23
I12
sg24
I-1
sg25
I2
sg26
F0
sS'v'
F13.489303538912523
sg27
I930
sg28
I00
sg29
F-1
sg30
F48.561492740085086
sg31
g32
sg35
F26.822333333333333
sg36
F27358.779999999999
sg37
I00
sg38
I00
sg39
I00
sg40
I9223372036854775807
sg41
S'green'
p348
sg43
F0.0012958780978833183
sg44
F24.858515891245894
sg45
F0
sg46
F25384.924490000001
sg47
g90
sS'a'
F0.33199924587948493
sg49
F1
sg50
F1137032.5046768549
sg51
F0
sg52
F0
sg53
I00
sg54
F214.60495560132574
sg55
I00
sg56
F0
sg57
F0.33199924587948493
sg58
S'WestRuislip'
p349
sg60
S'MAIN17'
p350
sg62
(lp351
S'26.803074898'
p352
aS'LEY'
p353
aS'Leyton'
p354
asg67
I00
sg68
I00
sg69
F0
sg70
F160.934
sg71
I33
sg72
S''
sg73
F0
sg74
F0
sS'm'
F249750
sg75
I0
sg76
(lp355
S'27.35878'
p356
aS'80.467'
p357
asg80
F20.11675
sg81
F72.420299999999997
sg82
F26803.074897999999
sg83
F0
sS'x'
F24858.515891245894
sg84
(lp358
sg101
F72.420299999999997
sg102
(lp359
S'25.38492449'
p360
aS'PreTruce'
p361
aS'6'
asg106
F1782466.7299806436
sba(i__main__
Tr
p362
(dp363
g3
F17443573.520473965
sg4
g5
sg8
I10
sg9
F25899.752356000001
sg10
F1
sg11
F0
sg12
I9223372036854775807
sg13
F12240100
sg14
I9223372036854775807
sg15
I00
sg16
F191.63103670107381
sg17
S'sig:WestRuislip:17300'
p364
sg19
F80.466999999999999
sg20
I0
sg21
I9223372036854775807
sg22
F64.373599999999996
sg23
I12
sg24
I-1
sg25
I3
sg26
F0
sS'v'
F20.532641753143562
sg27
I930
sg28
I00
sg29
F-1
sg30
F73.917510311316818
sg31
g32
sg35
F22.351944444444445
sg36
F34118.008000000002
sg37
I00
sg38
I00
sg39
I00
sg40
I9223372036854775807
sg41
S'green'
p365
sg43
F-0.0053167277346168372
sg44
F28.797195612328839
sg45
F122.63140320075763
sg46
F29098.798407999999
sg47
g48
sS'a'
F0.0053408679609907236
sg49
F1
sg50
F27944.570309564289
sg51
F0
sg52
F0
sg53
I00
sg54
F122.63140320075763
sg55
I00
sg56
F0
sg57
F0.0053408679609907236
sg58
S'WestRuislip'
p366
sg60
S'BRCH6'
p367
sg62
(lp368
S'28.989524222'
p369
aS'STR'
p370
aS'Stratford'
p371
aS'X'
asg67
I00
sg68
I00
sg69
F0
sg70
F160.934
sg71
I37
sg72
S''
sg73
F0
sg74
F0
sS'm'
F249750
sg75
I0
sg76
(lp372
S'34.118008'
p373
aS'64.3736'
p374
asg80
F17.881555555555554
sg81
F80.466999999999999
sg82
F28989.524222
sg83
F0
sS'x'
F28797.19561232884
sg84
(lp375
sg101
F80.466999999999999
sg102
(lp376
S'29.098798408'
p377
aS'STR+100'
p378
aS'1'
asg106
F1774601.7299808185
sba(i__main__
Tr
p379
(dp380
g3
F17490630.950760219
sg4
g5
sg8
I12
sg9
F25899.752356000001
sg10
F1
sg11
F0
sg12
I9223372036854775807
sg13
F12240100
sg14
I9223372036854775807
sg15
I01
sg16
F145.26610572552272
sg17
S'sig:WestRuislip:21450'
p381
sg19
F64.373599999999996
sg20
I0
sg21
I9223372036854775807
sg22
F24.1401
sg23
I12
sg24
I-1
sg25
I4
sg26
F0
sS'v'
F17.876952553389799
sg27
I930
sg28
I00
sg29
F-1
sg30
F64.357029192203285
sg31
g32
sg35
F17.881555555555554
sg36
F38302.292000000001
sg37
I00
sg38
I00
sg39
I00
sg40
I9223372036854775807
sg41
S'green'
p382
sg43
F0.0011336386321624547
sg44
F34.557361774790344
sg45
F187.35353266782403
sg46
F35221.049635999996
sg47
g48
sS'a'
F0
sg49
F1
sg50
F8.6520931843299671
sg51
F0
sg52
F0
sg53
I00
sg54
F187.35353266782403
sg55
I00
sg56
F0
sg57
F0
sg58
S'WestRuislip'
p383
sg60
S'MAIN19'
p384
sg62
(lp385
S'35.11177545'
p386
aS'BTH'
p387
aS'Bethnal-Green'
p388
asg67
I00
sg68
I00
sg69
F0
sg70
F160.934
sg71
I45
sg72
S''
sg73
F0
sg74
F0
sS'm'
F249750
sg75
I0
sg76
(lp389
S'38.302292'
p390
aS'24.1401'
p391
asg80
F6.7055833333333332
sg81
F64.373599999999996
sg82
F35111.775450000001
sg83
F0
sS'x'
F34557.361774790341
sg84
(lp392
sg101
F64.373599999999996
sg102
(lp393
S'35.221049636'
p394
aS'BTH+100'
p395
aS'1'
asg106
F1777214.1199807813
sba(i__main__
Tr
p396
(dp397
g3
F17434864.889846541
sg4
g5
sg8
I18
sg9
F25899.752356000001
sg10
F1
sg11
F0
sg12
I9223372036854775807
sg13
F12240100
sg14
I9223372036854775807
sg15
I01
sg16
F145.05541350688839
sg17
S'sig:WestRuislip:26200'
p398
sg19
F64.373599999999996
sg20
I0
sg21
I9223372036854775807
sg22
F40.233499999999999
sg23
I12
sg24
I-1
sg25
I7
sg26
F0
sS'v'
F17.863983590318103
sg27
I930
sg28
I00
sg29
F-1
sg30
F64.310340925145169
sg31
g32
sg35
F17.881555555555554
sg36
F49889.539999999994
sg37
I00
sg38
I01
sg39
I00
sg40
I9223372036854775807
sg41
S'green'
p399
sg43
F-0.0014914130973330644
sg44
F42.100377793858542
sg45
F132.85068680082065
sg46
F42164.707999999999
sg47
g48
sS'a'
F0
sg49
F1
sg50
F8.6396310286969982
sg51
F0
sg52
F0
sg53
I00
sg54
F132.85068680082065
sg55
I00
sg56
F0
sg57
F0
sg58
S'WestRuislip'
p400
sg60
S'MAIN20'
p401
sg62
(lp402
S'42.673420374'
p403
aS'TTT'
p404
aS'Tottenham-Court-Road'
p405
aS'X'
asg67
I00
sg68
I00
sg69
F0
sg70
F160.934
sg71
I55
sg72
S''
sg73
F0
sg74
F0
sS'm'
F249750
sg75
I0
sg76
g77
sg80
F11.175972222222223
sg81
F64.373599999999996
sg82
F42673.420374000001
sg83
F0
sS'x'
F42100.377793858541
sg84
(lp406
sg101
F64.373599999999996
sg102
(lp407
S'42.164708'
p408
aS'26200'
p409
aS'1'
asg106
F1780318.9799807861
sba(i__main__
Tr
p410
(dp411
g3
F17352671.822534058
sg4
g5
sg8
I23
sg9
F25899.752356000001
sg10
F1
sg11
F0
sg12
I9223372036854775807
sg13
F12240100
sg14
I9223372036854775807
sg15
I00
sg16
F0
sg17
S'sig:WestRuislip:28400'
p412
sg19
F64.373599999999996
sg20
I0
sg21
I9223372036854775807
sg22
F40.233499999999999
sg23
I12
sg24
I-1
sg25
I7
sg26
F0
sS'v'
F0
sg27
I930
sg28
I01
sg29
F-1
sg30
F0
sg31
g32
sg35
F17.881555555555554
sg36
F49889.539999999994
sg37
I00
sg38
I00
sg39
I00
sg40
I9223372036854775807
sg41
S'green'
p413
sg43
F0.002209860364434592
sg44
F46.171804318270603
sg45
F132.85068680082065
sg46
F46281.238786000002
sg47
g48
sS'a'
F0
sg49
F1
sg50
F0
sg51
F0
sg52
F0
sg53
I00
sg54
F132.85068680082065
sg55
I00
sg56
F61201.140478312518
sg57
F0
sg58
S'WestRuislip'
p414
sg60
S'MAIN21'
p415
sg62
(lp416
S'47.046479956'
p417
aS'QUW'
p418
aS'Queensway'
p419
asg67
I01
sg68
I00
sg69
F0
sg70
F160.934
sg71
I61
sg72
S''
sg73
F0
sg74
F0
sS'm'
F249750
sg75
I0
sg76
g77
sg80
F11.175972222222223
sg81
F64.373599999999996
sg82
F47046.479955999996
sg83
F0
sS'x'
F46171.804318270602
sg84
(lp420
sg101
F64.373599999999996
sg102
(lp421
S'46.281238786'
p422
aS'LAN+100'
p423
aS'1'
asg106
F1785698.6399806596
sba(i__main__
Tr
p424
(dp425
g3
F17346621.990028799
sg4
g5
sg8
I32
sg9
F25899.752356000001
sg10
F1
sg11
F0
sg12
I9223372036854775807
sg13
F12240100
sg14
I9223372036854775807
sg15
I00
sg16
F7.308995455037488
sg17
S'sig:WestRuislip:38800'
p426
sg19
F96.560400000000001
sg20
I0
sg21
I9223372036854775807
sg22
F64.373599999999996
sg23
I11
sg24
I0
sg25
I11
sg26
F0
sS'v'
F4.0044613465820937
sg27
I930
sg28
I00
sg29
F-1
sg30
F14.416060847695539
sg31
g32
sg35
F26.822333333333333
sg36
F72903.101999999999
sg37
I00
sg38
I00
sg39
I00
sg40
I9223372036854775807
sg41
S'green'
p427
sg43
F0.0010793962618610186
sg44
F63.292211065049102
sg45
F272.51422933501681
sg46
F63408.961603999996
sg47
g48
sS'a'
F-1.1000000000000001
sg49
F1
sg50
F0
sg51
F0
sg52
F0
sg53
I00
sg54
F272.51422933501681
sg55
I01
sg56
F0
sg57
F-1.1000000000000001
sg58
S'WestRuislip'
p428
sg60
S'BRCH1'
p429
sg62
(lp430
S'63.299526484'
p431
aS'GRF'
p432
aS'Greenford'
p433
asg67
I00
sg68
I00
sg69
F0
sg70
F160.934
sg71
I84
sg72
S'WestRuislip'
p434
sg73
F0
sg74
F0
sS'm'
F249750
sg75
I0
sg76
g136
sg80
F17.881555555555554
sg81
F96.560400000000001
sg82
F63299.526483999995
sg83
F0
sS'x'
F63292.211065049101
sg84
(lp435
sg101
F96.560400000000001
sg102
(lp436
S'63.408961604'
p437
aS'GRF+100'
p438
aS'1'
asg106
F1794293.269980201
sba(i__main__
Tr
p439
(dp440
g3
F17214996.098147243
sg4
g163
sg8
I32
sg9
F25899.752356000001
sg10
F1
sg11
F0
sg12
I9223372036854775807
sg13
F12240100
sg14
I9223372036854775807
sg15
I00
sg16
F189.50269855662376
sg17
S'sig:Epping:34700'
p441
sg19
F96.560400000000001
sg20
I0
sg21
I9223372036854775807
sg22
F40.233499999999999
sg23
I11
sg24
I0
sg25
I10
sg26
F0
sS'v'
F20.418324213951944
sg27
I930
sg28
I00
sg29
F-1
sg30
F73.505967170226995
sg31
g167
sg35
F26.822333333333333
sg36
F73707.772000000012
sg37
I00
sg38
I01
sg39
I00
sg40
I9223372036854775807
sg41
S'green'
p442
sg43
F-0.00050843351140718361
sg44
F55.66627054650975
sg45
F405.36491613583757
sg128
F1774.1500000000001
sg46
F55844.098000000005
sg47
g48
sS'a'
F0.0099267889292988208
sg49
F1
sg50
F51636.672169588681
sg51
F0
sg52
F0
sg53
I00
sg54
F405.36491613583757
sg55
I00
sg56
F0
sg57
F0.0099267889292988208
sg58
S'Epping'
p443
sg60
S'BRCH2'
p444
sg62
(lp445
S'56.448566104'
p446
aS'WOO'
p447
aS'Woodford'
p448
asg67
I00
sg68
I00
sg69
F0
sg70
F160.934
sg71
I71
sg72
S'Epping'
p449
sg73
F0
sg74
F0
sS'm'
F249750
sg75
I0
sg76
g263
sg80
F11.175972222222223
sg81
F96.560400000000001
sg82
F56448.566103999998
sg83
F0
sS'x'
F55666.270546509753
sg84
(lp450
sg101
F96.560400000000001
sg102
(lp451
S'55.844098'
p452
aS'34700'
p453
aS'1'
asg106
F1801055.9599801246
sba(i__main__
Tr
p454
(dp455
g3
F17358775.087929718
sg4
g5
sg8
I4
sg9
F25899.752356000001
sg10
F1
sg11
F0
sg12
I9223372036854775807
sg13
F12240100
sg14
I9223372036854775807
sg15
I00
sg16
F170.45016128372291
sg17
S'sig:WestRuislip:LOU+100'
p456
sg19
F96.560400000000001
sg20
I0
sg21
I9223372036854775807
sg22
F72.420299999999997
sg23
I12
sg24
I-1
sg25
I1
sg26
F0
sS'v'
F19.364931527110706
sg27
I930
sg28
I00
sg29
F-1
sg30
F69.713753497598546
sg31
g32
sg35
F26.822333333333333
sg36
F24140.099999999999
sg37
I00
sg38
I00
sg39
I00
sg40
I9223372036854775807
sg41
S'green'
p457
sg43
F-0.00034615070862029231
sg44
F13.825068327410007
sg45
F214.60495560132574
sg46
F14001.258
sg47
g48
sS'a'
F0.052767008705354598
sg49
F1
sg50
F260120.58787921074
sg51
F0
sg52
F0
sg53
I00
sg54
F214.60495560132574
sg55
I00
sg56
F0
sg57
F0.052767008705354598
sg58
S'WestRuislip'
p458
sg60
S'BRCH3'
p459
sg62
(lp460
S'15.4331360782'
p461
aS'BHH'
p462
aS'Buckhurst-Hill'
p463
asg67
I00
sg68
I00
sg69
F0
sg70
F160.934
sg71
I19
sg72
S''
sg73
F0
sg74
F0
sS'm'
F249750
sg75
I0
sg76
g310
sg80
F20.11675
sg81
F96.560400000000001
sg82
F15433.136078200001
sg83
F0
sS'x'
F13825.068327410007
sg84
(lp464
sg101
F96.560400000000001
sg102
(lp465
S'14.001258'
p466
aS'8700'
p467
aS'1'
asg106
F1794099.6699803369
sba(i__main__
Tr
p468
(dp469
g3
F17426866.371026799
sg4
g163
sg8
I5
sg9
F25899.752356000001
sg10
F1
sg11
F0
sg12
I9223372036854775807
sg13
F12240100
sg14
I9223372036854775807
sg15
I00
sg16
F191.89476180002188
sg17
S'sig:Epping:6000'
p470
sg19
F96.560400000000001
sg20
I0
sg21
I9223372036854775807
sg22
F72.420299999999997
sg23
I12
sg24
I-1
sg25
I1
sg26
F0
sS'v'
F20.546762691455228
sg27
I930
sg28
I00
sg29
F-1
sg30
F73.968345689238831
sg31
g167
sg35
F26.822333333333333
sg36
F16093.4
sg37
I00
sg38
I00
sg39
I00
sg40
I9223372036854775807
sg41
S'green'
p471
sg43
F0.0015646276595071321
sg44
F10.214519421926028
sg45
F214.60495560132574
sg46
F11315.205166400001
sg47
g48
sS'a'
F0.0047751536978079146
sg49
F1
sg50
F25003.243365517297
sg51
F0
sg52
F0
sg53
I00
sg54
F214.60495560132574
sg55
I00
sg56
F0
sg57
F0.0047751536978079146
sg58
S'Epping'
p472
sg60
S'BRCH4'
p473
sg62
(lp474
S'11.2058827002'
p475
aS'GRF'
p476
aS'Greenford'
p477
asg67
I00
sg68
I00
sg69
F0
sg70
F160.934
sg71
I13
sg72
S''
sg73
F0
sg74
F0
sS'm'
F249750
sg75
I0
sg76
g177
sg80
F20.11675
sg81
F96.560400000000001
sg82
F11205.8827002
sg83
F0
sS'x'
F10214.519421926028
sg84
(lp478
sg101
F96.560400000000001
sg102
(lp479
S'11.3152051664'
p480
aS'GRF+100'
p481
aS'1'
asg106
F1779300.1599807723
sbasg101
F64.373599999999996
sg102
(lp482
S'48.7227685'
p483
aS'HPA+100'
p484
aS'1'
asg106
F1788019.4199804668
sb.