(i__main__
Tr
p1
(dp2
S'mechWear'
p3
F5859837.3853392908
sS'nextGRD'
p4
(lp5
S'0.0'
p6
aS'0.0'
p7
asS'STAcnt'
p8
I35
sS'maxSquareSpeed'
p9
F25899.752356000001
sS'consumptionCutOff'
p10
F1
sS'grade'
p11
F0
sS'nGRDx'
p12
I9223372036854775807
sS'admissionWear'
p13
F4140100
sS'transitionGRDx'
p14
I9223372036854775807
sS'coasting'
p15
I00
sS'BDzero'
p16
F123.14984695611537
sS'redisSIG'
p17
S'sig:WestRuislip:SRL+100'
p18
sS'maxTIV'
p19
F96.560400000000001
sS'CRVcnt'
p20
I0
sS'nCRVx'
p21
I9223372036854775807
sS'nTIVvl'
p22
F64.373599999999996
sS'trip'
p23
I3
sS'pathCnt'
p24
I0
sS'TIVcnt'
p25
I11
sS'waitSta'
p26
F0
sS'v'
F16.460836791506349
sS'pax'
p27
I930
sS'startingPhase'
p28
I00
sS'advTIV'
p29
F-1
sS'vK'
p30
F59.259012449422855
sS'nextCRV'
p31
(lp32
S'0.0'
p33
aS'0.0'
p34
asS'cv'
p35
F26.822333333333333
sS'nTIVx'
p36
F72903.101999999999
sS'sigBrake'
p37
I00
sS'sigSpotted'
p38
I00
sS'inSta'
p39
I00
sS'transitionCRVx'
p40
I9223372036854775807
sS'advSIGcol'
p41
S'green'
p42
sS'aGaussFactor'
p43
F0.004121670166235992
sS'PK'
p44
F70.248210800812032
sS'deltaBDtiv'
p45
F272.51422933501681
sS'nSIGx'
p46
F70810.959999999992
sS'nTIVtype'
p47
S'DEC'
p48
sS'a'
F0.17912440094867105
sS'ratioGRD'
p49
F1
sS'power'
p50
F749469.72594947286
sS'gradient'
p51
F0
sS'BDsta'
p52
F0
sS'initSwitchSeg'
p53
I00
sS'BDtiv'
p54
F272.51422933501681
sS'staBrake'
p55
I00
sS'waitReact'
p56
F0
sS'aFull'
p57
F0.17912440094867105
sS'segment'
p58
S'WestRuislip'
p59
sS'name'
p60
S'MAIN1'
p61
sS'nextSTA'
p62
(lp63
S'71.480767308'
p64
aS'RLG'
p65
aS'Ruislip-Gardens'
p66
asS'react'
p67
I00
sS'atSig'
p68
I00
sS'deltaBDsta'
p69
F0
sS'tgtVk'
p70
F160.934
sS'SIGcnt'
p71
I93
sS'pathBranch'
p72
S'WestRuislip'
p73
sS'oldGradient'
p74
F0
sS'critVk'
p75
F0
sS'm'
F249750
sS'GRDcnt'
p76
I0
sS'nextTIV'
p77
(lp78
S'72.903102'
p79
aS'64.3736'
p80
asS'nv'
p81
F17.881555555555554
sS'maxVk'
p82
F96.560400000000001
sS'nSTAx'
p83
F71480.767307999995
sS'DBrt'
p84
F0
sS'x'
F70248.210800812027
sS'trs'
p85
(lp86
(i__main__
Tr
p87
(dp88
g3
F5850253.614723051
sg4
g5
sg8
I36
sg9
F25899.752356000001
sg10
F1
sg11
F0
sg12
I9223372036854775807
sg13
F4140100
sg14
I9223372036854775807
sg15
I01
sg16
F36.313701245420589
sg17
S'sig:WestRuislip:WRL-200'
p89
sg19
F32.186799999999998
sg20
I0
sg21
I9223372036854775807
sg22
F32.186799999999998
sg23
I3
sg24
I0
sg25
I12
sg26
F0
sS'v'
F8.9381285927158878
sg27
I930
sg28
I00
sg29
F-1
sg30
F32.1772629337772
sg31
g32
sg35
F17.881555555555554
sg36
I9223372036854775807
sg37
I00
sg38
I00
sg39
I00
sg40
I9223372036854775807
sg41
S'green'
p90
sg43
F0.0018414361963972861
sg44
F74.03273041758888
sg45
F163.50853760101006
sg46
F74304.998074000003
sg47
g48
sS'a'
F0
sg49
F1
sg50
F2.7254851090811822
sg51
F0
sg52
F0
sg53
I00
sg54
F163.50853760101006
sg55
I00
sg56
F0
sg57
F0
sg58
S'WestRuislip'
p91
sg60
S'MAIN14'
p92
sg62
(lp93
S'74.195723888'
p94
aS'WRL'
p95
aS'West-Ruislip'
p96
asg67
I00
sg68
I00
sg69
F0
sg70
F160.934
sg71
I98
sg72
S'WestRuislip'
p97
sg74
F0
sg75
F0
sS'm'
F249750
sg76
I0
sg77
(lp98
S'74.02964'
p99
aS'32.1868'
p100
asg81
F8.940777777777777
sg82
F32.186799999999998
sg83
F74195.723888000008
sg84
F0
sS'x'
F74032.730417588886
sg85
(lp101
sS'cTIVvl'
p102
F64.373599999999996
sS'nextSIG'
p103
(lp104
S'74.304998074'
p105
aS'WRL+100'
p106
aS'3'
asS'brakeWear'
p107
F596938.98000666767
sba(i__main__
Tr
p108
(dp109
g3
F5835726.1429327894
sg4
(lp110
S'0.0'
p111
aS'0.0'
p112
asg8
I2
sg9
F25899.752356000001
sg10
F1
sg11
F0
sg12
I9223372036854775807
sg13
F4140100
sg14
I9223372036854775807
sg15
I00
sg16
F191.87370063108867
sg17
S'sig:Epping:1300'
p113
sg19
F96.560400000000001
sg20
I0
sg21
I9223372036854775807
sg22
F72.420299999999997
sg23
I4
sg24
I-1
sg25
I1
sg26
F0
sS'v'
F20.545635345528712
sg27
I930
sg28
I00
sg29
F-1
sg30
F73.964287243903371
sg31
(lp114
S'0.0'
p115
aS'0.0'
p116
asg35
F26.822333333333333
sg36
F16093.4
sg37
I00
sg38
I00
sg39
I00
sg40
I9223372036854775807
sg41
S'green'
p117
sg43
F0.00059922250854693444
sg44
F2.3746777494594156
sg45
F214.60495560132574
sg46
F3133.9965292000002
sg47
g48
sS'a'
F0.0048203115058172569
sg49
F1
sg50
F25238.184066556922
sg51
F0
sg52
F0
sg53
I00
sg54
F214.60495560132574
sg55
I00
sg56
F0
sg57
F0.0048203115058172569
sg58
S'Epping'
p118
sg60
S'MAIN2'
p119
sg62
(lp120
S'3.024674063'
p121
aS'RLG'
p122
aS'Ruislip-Gardens'
p123
asg67
I00
sg68
I00
sg69
F0
sg70
F160.934
sg71
I5
sg72
S''
sg74
F0
sg75
F0
sS'm'
F249750
sg76
I0
sg77
(lp124
S'16.0934'
p125
aS'72.4203'
p126
asg81
F20.11675
sg82
F96.560400000000001
sg83
F3024.6740629999999
sg84
F0
sS'x'
F2374.6777494594157
sg85
(lp127
sg102
F96.560400000000001
sg103
(lp128
S'3.1339965292'
p129
aS'RLG+100'
p130
aS'1'
asg107
F599582.83000663016
sba(i__main__
Tr
p131
(dp132
g3
F5794959.7389497953
sg4
g110
sg8
I4
sg9
F25899.752356000001
sg10
F1
sg11
F0
sg12
I9223372036854775807
sg13
F4140100
sg14
I9223372036854775807
sg15
I00
sg16
F184.8159419311913
sg17
S'sig:Epping:3500'
p133
sg19
F96.560400000000001
sg20
I0
sg21
I9223372036854775807
sg22
F72.420299999999997
sg23
I4
sg24
I-1
sg25
I1
sg26
F0
sS'v'
F20.164303530959661
sg27
I930
sg28
I00
sg29
F-1
sg30
F72.591492711454777
sg31
g114
sg35
F26.822333333333333
sg36
F16093.4
sg37
I00
sg38
I00
sg39
I00
sg40
I9223372036854775807
sg41
S'green'
p134
sg43
F-0.0027500355084888106
sg44
F5.9119642605391798
sg45
F214.60495560132574
sS'sigPoll'
p135
F245.72999999999999
sg46
F6598.2939999999999
sg47
g48
sS'a'
F0.02015765237468806
sg49
F1
sg50
F103524.00674330685
sg51
F0
sg52
F0
sg53
I00
sg54
F214.60495560132574
sg55
I00
sg56
F0
sg57
F0.02015765237468806
sg58
S'Epping'
p136
sg60
S'MAIN15'
p137
sg62
(lp138
S'8.1629909084'
p139
aS'NHO'
p140
aS'Northolt'
p141
asg67
I00
sg68
I00
sg69
F0
sg70
F160.934
sg71
I9
sg72
S''
sg74
F0
sg75
F0
sS'm'
F249750
sg76
I0
sg77
g124
sg81
F20.11675
sg82
F96.560400000000001
sg83
F8162.9909083999992
sg84
F0
sS'x'
F5911.96426053918
sg85
(lp142
sg102
F96.560400000000001
sg103
(lp143
S'6.598294'
p144
aS'4100'
p145
aS'1'
asg107
F596544.52000674128
sba(i__main__
Tr
p146
(dp147
g3
F5891661.3801001282
sg4
g110
sg8
I9
sg9
F25899.752356000001
sg10
F1
sg11
F0
sg12
I9223372036854775807
sg13
F4140100
sg14
I9223372036854775807
sg15
I00
sg16
F184.25079993986608
sg17
S'sig:Epping:12850'
p148
sg19
F88.5137
sg20
I0
sg21
I9223372036854775807
sg22
F40.233499999999999
sg23
I4
sg24
I-1
sg25
I3
sg26
F0
sS'v'
F20.133456464951013
sg27
I930
sg28
I00
sg29
F-1
sg30
F72.480443273823653
sg31
g114
sg35
F24.587138888888887
sg36
F22530.760000000002
sg37
I00
sg38
I00
sg39
I00
sg40
I9223372036854775807
sg41
S'green'
p149
sg43
F0.003005635221823988
sg44
F20.713978619715459
sg45
F327.01707520202007
sg46
F21628.242128000002
sg47
g48
sS'a'
F0.02140402386004844
sg49
F1
sg50
F109754.25280636373
sg51
F0
sg52
F0
sg53
I00
sg54
F327.01707520202007
sg55
I00
sg56
F0
sg57
F0.02140402386004844
sg58
S'Epping'
p150
sg60
S'MAIN3'
p151
sg62
(lp152
S'21.518967942'
p153
aS'EAC'
p154
aS'East-Acton'
p155
asg67
I00
sg68
I00
sg69
F0
sg70
F160.934
sg71
I25
sg72
S''
sg74
F0
sg75
F0
sS'm'
F249750
sg76
I0
sg77
(lp156
S'22.53076'
p157
aS'40.2335'
p158
asg81
F11.175972222222223
sg82
F88.5137
sg83
F21518.967941999999
sg84
F0
sS'x'
F20713.978619715457
sg85
(lp159
sg102
F88.5137
sg103
(lp160
S'21.628242128'
p161
aS'EAC+100'
p162
aS'1'
asg107
F604932.24000657012
sba(i__main__
Tr
p163
(dp164
g3
F5887908.1557789724
sg4
g110
sg8
I13
sg9
F25899.752356000001
sg10
F1
sg11
F0
sg12
I9223372036854775807
sg13
F4140100
sg14
I9223372036854775807
sg15
I01
sg16
F145.05541350688839
sg17
S'sig:Epping:HPA+100'
p165
sg19
F64.373599999999996
sg20
I0
sg21
I9223372036854775807
sg22
F24.1401
sg23
I4
sg24
I-1
sg25
I5
sg26
F0
sS'v'
F17.863983590318103
sg27
I930
sg28
I00
sg29
F-1
sg30
F64.310340925145169
sg31
g114
sg35
F17.881555555555554
sg36
F35003.145000000004
sg37
I00
sg38
I00
sg39
I00
sg40
I9223372036854775807
sg41
S'green'
p166
sg43
F0.0027400621280206342
sg44
F26.466230409303673
sg45
F187.35353266782403
sg46
F26857.631523999997
sg47
g48
sS'a'
F0
sg49
F1
sg50
F8.6396310286969982
sg51
F0
sg52
F0
sg53
I00
sg54
F187.35353266782403
sg55
I00
sg56
F0
sg57
F0
sg58
S'Epping'
p167
sg60
S'BRCH7'
p168
sg62
(lp169
S'26.748357338'
p170
aS'NOT'
p171
aS'Notting-Hill-Gate'
p172
aS'X'
asg67
I00
sg68
I00
sg69
F0
sg70
F160.934
sg71
I33
sg72
S''
sg74
F0
sg75
F0
sS'm'
F249750
sg76
I0
sg77
(lp173
S'35.003145'
p174
aS'24.1401'
p175
asg81
F6.7055833333333332
sg82
F64.373599999999996
sg83
F26748.357338000002
sg84
F0
sS'x'
F26466.230409303673
sg85
(lp176
sg102
F64.373599999999996
sg103
(lp177
S'26.857631524'
p178
aS'NOT+100'
p179
aS'1'
asg107
F597904.56000678183
sba(i__main__
Tr
p180
(dp181
g3
F5879068.7756512398
sg4
g110
sg8
I24
sg9
F25899.752356000001
sg10
F1
sg11
F0
sg12
I9223372036854775807
sg13
F4140100
sg14
I9223372036854775807
sg15
I01
sg16
F20.414470984840591
sg17
S'sig:Epping:SPA+100'
p182
sg19
F24.1401
sg20
I0
sg21
I9223372036854775807
sg22
F48.280200000000001
sg23
I4
sg24
I-1
sg25
I6
sg26
F0
sS'v'
F6.7016293665532789
sg27
I930
sg28
I00
sg29
F-1
sg30
F24.125865719591804
sg31
g114
sg35
F17.881555555555554
sg36
F35968.749000000003
sg37
I00
sg38
I00
sg39
I00
sg40
I9223372036854775807
sg41
S'green'
p183
sg43
F-0.00046440023455156346
sg44
F35.772516585460295
sg45
F0
sg46
F35804.113517999998
sg47
S'INC'
p184
sS'a'
F0
sg49
F1
sg50
F1.8684085148268961
sg51
F0
sg52
F0
sg53
I00
sg54
F187.35353266782403
sg55
I00
sg56
F0
sg57
F0
sg58
S'Epping'
p185
sg60
S'BRCH8'
p186
sg62
(lp187
S'36.49661252'
p188
aS'LIV'
p189
aS'Liverpool-Street'
p190
aS'X'
asg67
I00
sg68
I00
sg69
F0
sg70
F160.934
sg71
I46
sg72
S''
sg74
F0
sg75
F0
sS'm'
F249750
sg76
I0
sg77
(lp191
S'35.968749'
p192
aS'48.2802'
p193
asg81
F6.7055833333333332
sg82
F24.1401
sg83
F36496.612520000002
sg84
F0
sS'x'
F35772.516585460296
sg85
(lp194
sg102
F24.1401
sg103
(lp195
S'35.804113518'
p196
aS'BNK+100'
p197
aS'1'
asg107
F606072.0600065022
sba(i__main__
Tr
p198
(dp199
g3
F5865535.4855571641
sg4
g110
sg8
I27
sg9
F25899.752356000001
sg10
F1
sg11
F0
sg12
I9223372036854775807
sg13
F4140100
sg14
I9223372036854775807
sg15
I00
sg16
F186.79339265752154
sg17
S'sig:Epping:26600'
p200
sg19
F80.466999999999999
sg20
I0
sg21
I9223372036854775807
sg22
F64.373599999999996
sg23
I4
sg24
I-1
sg25
I8
sg26
F0
sS'v'
F20.271868944761138
sg27
I930
sg28
I00
sg29
F-1
sg30
F72.9787282011401
sg31
g114
sg35
F22.351944444444445
sg36
F46670.860000000001
sg37
I00
sg38
I00
sg39
I00
sg40
I9223372036854775807
sg41
S'green'
p201
sg43
F-0.0022398450692122261
sg44
F43.295278446754082
sg45
F122.63140320075763
sg46
F43774.048000000003
sg47
g48
sS'a'
F0.015818340616816348
sg49
F1
sg50
F81679.29952963446
sg51
F0
sg52
F0
sg53
I00
sg54
F122.63140320075763
sg55
I00
sg56
F0
sg57
F0.015818340616816348
sg58
S'Epping'
p202
sg60
S'MAIN7'
p203
sg62
(lp204
S'45.515997616'
p205
aS'STR'
p206
aS'Stratford'
p207
aS'X'
asg67
I00
sg68
I00
sg69
F0
sg70
F160.934
sg71
I56
sg72
S''
sg74
F0
sg75
F0
sS'm'
F249750
sg76
I0
sg77
(lp208
S'46.67086'
p209
aS'64.3736'
p210
asg81
F17.881555555555554
sg82
F80.466999999999999
sg83
F45515.997616000001
sg84
F0
sS'x'
F43295.278446754084
sg85
(lp211
sg102
F80.466999999999999
sg103
(lp212
S'43.774048'
p213
aS'27200'
p214
aS'1'
asg107
F604708.39000662055
sba(i__main__
Tr
p215
(dp216
g3
F5874632.6690568849
sg4
g110
sg8
I32
sg9
F25899.752356000001
sg10
F1
sg11
F0
sg12
I9223372036854775807
sg13
F4140100
sg14
I9223372036854775807
sg15
I00
sg16
F183.23449039689476
sg17
S'sig:Epping:34000'
p217
sg19
F96.560400000000001
sg20
I0
sg21
I9223372036854775807
sg22
F40.233499999999999
sg23
I4
sg24
I0
sg25
I10
sg26
F0
sS'v'
F20.077864123766492
sg27
I930
sg28
I00
sg29
F-1
sg30
F72.28031084555937
sg31
g114
sg35
F26.822333333333333
sg36
F73707.772000000012
sg37
I00
sg38
I00
sg39
I00
sg40
I9223372036854775807
sg41
S'green'
p218
sg43
F-0.0028566067900297012
sg44
F55.22939890739277
sg45
F405.36491613583757
sg46
F55844.098000000005
sg47
g48
sS'a'
F0.023652482245561577
sg49
F1
sg50
F120943.91289109217
sg51
F0
sg52
F0
sg53
I00
sg54
F405.36491613583757
sg55
I00
sg56
F0
sg57
F0.023652482245561577
sg58
S'Epping'
p219
sg60
S'MAIN8'
p220
sg62
(lp221
S'56.448566104'
p222
aS'WOO'
p223
aS'Woodford'
p224
asg67
I00
sg68
I00
sg69
F0
sg70
F160.934
sg71
I71
sg72
S'Epping'
p225
sg74
F0
sg75
F0
sS'm'
F249750
sg76
I0
sg77
(lp226
S'73.707772'
p227
aS'40.2335'
p228
asg81
F11.175972222222223
sg82
F96.560400000000001
sg83
F56448.566103999998
sg84
F0
sS'x'
F55229.398907392773
sg85
(lp229
sg102
F96.560400000000001
sg103
(lp230
S'55.844098'
p231
aS'34700'
p232
aS'1'
asg107
F604525.68000669195
sba(i__main__
Tr
p233
(dp234
g3
F5855287.0473421738
sg4
g110
sg8
I36
sg9
F25899.752356000001
sg10
F1
sg11
F0
sg12
I9223372036854775807
sg13
F4140100
sg14
I9223372036854775807
sg15
I00
sg16
F0
sg17
S'sig:Epping:39500'
p235
sg19
F96.560400000000001
sg20
I0
sg21
I9223372036854775807
sg22
F40.233499999999999
sg23
I4
sg24
I0
sg25
I10
sg26
F20701.639999999999
sS'v'
F0
sg27
I930
sg28
I01
sg29
F-1
sg30
F0
sg31
g114
sg35
F26.822333333333333
sg36
F73707.772000000012
sg37
I00
sg38
I00
sg39
I01
sg40
I9223372036854775807
sg41
S'green'
p236
sg43
F0.0032800326614524436
sg44
F64.320010018925387
sg45
F405.36491613583757
sg46
F64429.283164
sg47
g48
sS'a'
F0
sg49
F1
sg50
F0
sg51
F0
sg52
F0
sg53
I00
sg54
F405.36491613583757
sg55
I00
sg56
F0
sg57
F0
sg58
S'Epping'
p237
sg60
S'MAIN9'
p238
sg62
(lp239
S'69.130326238'
p240
aS'THB'
p241
aS'Theydon-Bois'
p242
asg67
I00
sg68
I00
sg69
F0
sg70
F160.934
sg71
I81
sg72
S'Epping'
p243
sg74
F0
sg75
F0
sS'm'
F249750
sg76
I0
sg77
g226
sg81
F11.175972222222223
sg82
F96.560400000000001
sg83
F69130.326237999994
sg84
F0
sS'x'
F64320.010018925386
sg85
(lp244
sg102
F96.560400000000001
sg103
(lp245
S'64.429283164'
p246
aS'DBD+100'
p247
aS'1'
asg107
F608778.83000649791
sba(i__main__
Tr
p248
(dp249
g3
F5853463.7253091475
sg4
g5
sg8
I1
sg9
F25899.752356000001
sg10
F1
sg11
F0
sg12
I9223372036854775807
sg13
F4140100
sg14
I9223372036854775807
sg15
I00
sg16
F0
sg17
S'sig:WestRuislip:EPP-100'
p250
sg19
F96.560400000000001
sg20
I0
sg21
I9223372036854775807
sg22
F72.420299999999997
sg23
I4
sg24
I-1
sg25
I1
sg26
F20710.130000000001
sS'v'
F0
sg27
I930
sg28
I01
sg29
F-1
sg30
F0
sg31
g32
sg35
F26.822333333333333
sg36
F24140.099999999999
sg37
I00
sg38
I00
sg39
I01
sg40
I9223372036854775807
sg41
S'green'
p251
sg43
F-0.004175173105128686
sg44
F0.47374546629779885
sg45
F214.60495560132574
sg46
F583.07031935999998
sg47
g48
sS'a'
F0
sg49
F1
sg50
F0
sg51
F0
sg52
F0
sg53
I00
sg54
F214.60495560132574
sg55
I00
sg56
F0
sg57
F0
sg58
S'WestRuislip'
p252
sg60
S'MAIN11'
p253
sg62
(lp254
S'5.3751795066'
p255
aS'THB'
p256
aS'Theydon-Bois'
p257
asg67
I00
sg68
I00
sg69
F0
sg70
F160.934
sg71
I2
sg72
S''
sg74
F0
sg75
F0
sS'm'
F249750
sg76
I0
sg77
(lp258
S'24.1401'
p259
aS'72.4203'
p260
asg81
F20.11675
sg82
F96.560400000000001
sg83
F5375.1795066000004
sg84
F0
sS'x'
F473.74546629779883
sg85
(lp261
sg102
F96.560400000000001
sg103
(lp262
S'0.58307031936'
p263
aS'EPP+100'
p264
aS'1'
asg107
F608993.00000652613
sba(i__main__
Tr
p265
(dp266
g3
F5866625.0558429994
sg4
g5
sg8
I2
sg9
F25899.752356000001
sg10
F1
sg11
F0
sg12
I9223372036854775807
sg13
F4140100
sg14
I9223372036854775807
sg15
I00
sg16
F193.95179060647362
sg17
S'sig:WestRuislip:5500'
p267
sg19
F96.560400000000001
sg20
I0
sg21
I9223372036854775807
sg22
F72.420299999999997
sg23
I4
sg24
I-1
sg25
I1
sg26
F0
sS'v'
F20.656573242603546
sg27
I930
sg28
I00
sg29
F-1
sg30
F74.36366367337277
sg31
g32
sg35
F26.822333333333333
sg36
F24140.099999999999
sg37
I00
sg38
I01
sg39
I00
sg40
I9223372036854775807
sg41
S'green'
p268
sg43
F-0.0028805053035534031
sg44
F8.7299567480004843
sg45
F214.60495560132574
sg46
F8851.369999999999
sg47
g48
sS'a'
F0.00038144180795118772
sg49
F1
sg50
F2018.7974878747771
sg51
F0
sg52
F0
sg53
I00
sg54
F214.60495560132574
sg55
I00
sg56
F0
sg57
F0.00038144180795118772
sg58
S'WestRuislip'
p269
sg60
S'MAIN18'
p270
sg62
(lp271
S'10.18551286'
p272
aS'DBD'
p273
aS'Debden'
p274
asg67
I00
sg68
I00
sg69
F0
sg70
F160.934
sg71
I12
sg72
S''
sg74
F0
sg75
F0
sS'm'
F249750
sg76
I0
sg77
g258
sg81
F20.11675
sg82
F96.560400000000001
sg83
F10185.512859999999
sg84
F0
sS'x'
F8729.9567480004844
sg85
(lp275
sg102
F96.560400000000001
sg103
(lp276
S'8.85137'
p277
aS'5500'
p278
aS'1'
asg107
F604495.43000645912
sba(i__main__
Tr
p279
(dp280
g3
F5872768.8003010284
sg4
g5
sg8
I4
sg9
F25899.752356000001
sg10
F1
sg11
F0
sg12
I9223372036854775807
sg13
F4140100
sg14
I9223372036854775807
sg15
I00
sg16
F181.02675521718683
sg17
S'sig:WestRuislip:8700'
p281
sg19
F96.560400000000001
sg20
I0
sg21
I9223372036854775807
sg22
F72.420299999999997
sg23
I4
sg24
I-1
sg25
I1
sg26
F0
sS'v'
F19.956566908915082
sg27
I930
sg28
I00
sg29
F-1
sg30
F71.843640872094298
sg31
g32
sg35
F26.822333333333333
sg36
F24140.099999999999
sg37
I00
sg38
I00
sg39
I00
sg40
I9223372036854775807
sg41
S'green'
p282
sg43
F0.0033112518725958405
sg44
F14.120727162843256
sg45
F214.60495560132574
sg46
F14644.994000000001
sg47
g48
sS'a'
F0.028568704344795651
sg49
F1
sg50
F145187.66262655283
sg51
F0
sg52
F0
sg53
I00
sg54
F214.60495560132574
sg55
I00
sg56
F0
sg57
F0.028568704344795651
sg58
S'WestRuislip'
p283
sg60
S'MAIN12'
p284
sg62
(lp285
S'15.4331360782'
p286
aS'BHH'
p287
aS'Buckhurst-Hill'
p288
asg67
I00
sg68
I00
sg69
F0
sg70
F160.934
sg71
I20
sg72
S''
sg74
F0
sg75
F0
sS'm'
F249750
sg76
I0
sg77
g258
sg81
F20.11675
sg82
F96.560400000000001
sg83
F15433.136078200001
sg84
F0
sS'x'
F14120.727162843255
sg85
(lp289
sg102
F96.560400000000001
sg103
(lp290
S'14.644994'
p291
aS'9100'
p292
aS'1'
asg107
F604535.36000667198
sba(i__main__
Tr
p293
(dp294
g3
F5867807.4024534142
sg4
g5
sg8
I9
sg9
F25899.752356000001
sg10
F1
sg11
F0
sg12
I9223372036854775807
sg13
F4140100
sg14
I9223372036854775807
sg15
I00
sg16
F64.418847784159468
sg17
S'sig:WestRuislip:LYS+100'
p295
sg19
F72.420299999999997
sg20
I0
sg21
I9223372036854775807
sg22
F80.466999999999999
sg23
I4
sg24
I-1
sg25
I2
sg26
F0
sS'v'
F11.906840316612174
sg27
I930
sg28
I00
sg29
F-1
sg30
F42.864625139803827
sg31
g32
sg35
F26.822333333333333
sg36
F27358.779999999999
sg37
I00
sg38
I01
sg39
I00
sg40
I9223372036854775807
sg41
S'green'
p296
sg43
F-0.0017560867477448758
sg44
F24.805225758479068
sg45
F0
sg46
F24816.988404
sg47
g184
sS'a'
F0.43156584795707587
sg49
F1
sg50
F1304150.5276582632
sg51
F0
sg52
F0
sg53
I00
sg54
F214.60495560132574
sg55
I00
sg56
F0
sg57
F0.43156584795707587
sg58
S'WestRuislip'
p297
sg60
S'MAIN13'
p298
sg62
(lp299
S'26.803074898'
p300
aS'LEY'
p301
aS'Leyton'
p302
asg67
I00
sg68
I00
sg69
F0
sg70
F160.934
sg71
I32
sg72
S''
sg74
F0
sg75
F0
sS'm'
F249750
sg76
I0
sg77
(lp303
S'27.35878'
p304
aS'80.467'
p305
asg81
F20.11675
sg82
F72.420299999999997
sg83
F26803.074897999999
sg84
F0
sS'x'
F24805.225758479068
sg85
(lp306
sg102
F72.420299999999997
sg103
(lp307
S'24.816988404'
p308
aS'LYS+100'
p309
aS'1'
asg107
F604663.62000652507
sba(i__main__
Tr
p310
(dp311
g3
F5897194.2550818417
sg4
g5
sg8
I15
sg9
F25899.752356000001
sg10
F1
sg11
F0
sg12
I9223372036854775807
sg13
F4140100
sg14
I9223372036854775807
sg15
I00
sg16
F0
sg17
S'sig:WestRuislip:LIV+100'
p312
sg19
F24.1401
sg20
I0
sg21
I9223372036854775807
sg22
F48.280200000000001
sg23
I4
sg24
I-1
sg25
I5
sg26
F20708.055
sS'v'
F0
sg27
I930
sg28
I01
sg29
F-1
sg30
F0
sg31
g32
sg35
F17.881555555555554
sg36
F39106.962
sg37
I00
sg38
I00
sg39
I01
sg40
I9223372036854775807
sg41
S'green'
p313
sg43
F-0.006729383770489602
sg44
F38.828868796169957
sg45
F0
sg46
F38938.142233999999
sg47
g184
sS'a'
F0
sg49
F1
sg50
F0
sg51
F0
sg52
F0
sg53
I00
sg54
F187.35353266782403
sg55
I00
sg56
F0
sg57
F0
sg58
S'WestRuislip'
p314
sg60
S'BRCH9'
p315
sg62
(lp316
S'39.61229476'
p317
aS'SPA'
p318
aS'Saint-Pauls'
p319
asg67
I00
sg68
I00
sg69
F0
sg70
F160.934
sg71
I50
sg72
S''
sg74
F0
sg75
F0
sS'm'
F249750
sg76
I0
sg77
(lp320
S'39.106962'
p321
aS'48.2802'
p322
asg81
F6.7055833333333332
sg82
F24.1401
sg83
F39612.294759999997
sg84
F0
sS'x'
F38828.868796169954
sg85
(lp323
sg102
F24.1401
sg103
(lp324
S'38.938142234'
p325
aS'BNK+100'
p326
aS'1'
asg107
F602823.2100065964
sba(i__main__
Tr
p327
(dp328
g3
F5857369.392938165
sg4
g5
sg8
I17
sg9
F25899.752356000001
sg10
F1
sg11
F0
sg12
I9223372036854775807
sg13
F4140100
sg14
I9223372036854775807
sg15
I00
sg16
F78.147324396710971
sg17
S'sig:WestRuislip:CHL+100'
p329
sg19
F64.373599999999996
sg20
I0
sg21
I9223372036854775807
sg22
F40.233499999999999
sg23
I4
sg24
I-1
sg25
I7
sg26
F0
sS'v'
F13.106483590317834
sg27
I930
sg28
I00
sg29
F-1
sg30
F47.183340925144208
sg31
g32
sg35
F17.881555555555554
sg36
F49889.539999999994
sg37
I00
sg38
I00
sg39
I00
sg40
I9223372036854775807
sg41
S'green'
p330
sg43
F0.004768266726696755
sg44
F41.465765661408717
sg45
F132.85068680082065
sg46
F41653.098814000004
sg47
g48
sS'a'
F-1.1000000000000001
sg49
F1
sg50
F0
sg51
F0
sg52
F0
sg53
I00
sg54
F132.85068680082065
sg55
I01
sg56
F0
sg57
F-1.1000000000000001
sg58
S'WestRuislip'
p331
sg60
S'MAIN16'
p332
sg62
(lp333
S'41.543824628'
p334
aS'HLB'
p335
aS'Holborn'
p336
aS'X'
asg67
I00
sg68
I00
sg69
F0
sg70
F160.934
sg71
I54
sg72
S''
sg74
F0
sg75
F0
sS'm'
F249750
sg76
I0
sg77
(lp337
S'49.88954'
p338
aS'40.2335'
p339
asg81
F11.175972222222223
sg82
F64.373599999999996
sg83
F41543.824628000002
sg84
F0
sS'x'
F41465.765661408717
sg85
(lp340
sg102
F64.373599999999996
sg103
(lp341
S'41.653098814'
p342
aS'HLB+100'
p343
aS'1'
asg107
F584393.70000709803
sba(i__main__
Tr
p344
(dp345
g3
F5886533.4710714724
sg4
g5
sg8
I20
sg9
F25899.752356000001
sg10
F1
sg11
F0
sg12
I9223372036854775807
sg13
F4140100
sg14
I9223372036854775807
sg15
I00
sg16
F111.32321528615023
sg17
S'sig:WestRuislip:OXF+100'
p346
sg19
F64.373599999999996
sg20
I0
sg21
I9223372036854775807
sg22
F40.233499999999999
sg23
I4
sg24
I-1
sg25
I7
sg26
F0
sS'v'
F15.650723244880107
sg27
I930
sg28
I00
sg29
F-1
sg30
F56.342603681568384
sg31
g32
sg35
F17.881555555555554
sg36
F49889.539999999994
sg37
I00
sg38
I00
sg39
I00
sg40
I9223372036854775807
sg41
S'green'
p347
sg43
F0.00010198936102247765
sg44
F43.798484923618723
sg45
F132.85068680082065
sg46
F44258.620274000001
sg47
g48
sS'a'
F0.21766177947962409
sg49
F1
sg50
F865581.81196269311
sg51
F0
sg52
F0
sg53
I00
sg54
F132.85068680082065
sg55
I00
sg56
F0
sg57
F0.21766177947962409
sg58
S'WestRuislip'
p348
sg60
S'MAIN17'
p349
sg62
(lp350
S'44.149346088'
p351
aS'BST'
p352
aS'Bond-Street'
p353
aS'X'
asg67
I00
sg68
I00
sg69
F0
sg70
F160.934
sg71
I58
sg72
S''
sg74
F0
sg75
F0
sS'm'
F249750
sg76
I0
sg77
g337
sg81
F11.175972222222223
sg82
F64.373599999999996
sg83
F44149.346087999998
sg84
F0
sS'x'
F43798.484923618722
sg85
(lp354
sg102
F64.373599999999996
sg103
(lp355
S'44.258620274'
p356
aS'BST+100'
p357
aS'1'
asg107
F597965.0600068355
sba(i__main__
Tr
p358
(dp359
g3
F5884502.1569828149
sg4
g5
sg8
I23
sg9
F25899.752356000001
sg10
F1
sg11
F0
sg12
I9223372036854775807
sg13
F4140100
sg14
I9223372036854775807
sg15
I00
sg16
F36.301048366080032
sg17
S'sig:WestRuislip:28400'
p360
sg19
F64.373599999999996
sg20
I0
sg21
I9223372036854775807
sg22
F40.233499999999999
sg23
I4
sg24
I-1
sg25
I7
sg26
F0
sS'v'
F8.9400048604899336
sg27
I930
sg28
I00
sg29
F-1
sg30
F32.184017497763762
sg31
g32
sg35
F17.881555555555554
sg36
F49889.539999999994
sg37
I00
sg38
I00
sg39
I00
sg40
I9223372036854775807
sg41
S'green'
p361
sg43
F0.0041180966672526792
sg44
F46.211512968994214
sg45
F132.85068680082065
sg46
F46281.238786000002
sg47
g48
sS'a'
F0.68671427564087062
sg49
F1
sg50
F1558367.5920048086
sg51
F0
sg52
F0
sg53
I00
sg54
F132.85068680082065
sg55
I00
sg56
F0
sg57
F0.68671427564087062
sg58
S'WestRuislip'
p362
sg60
S'BRCH6'
p363
sg62
(lp364
S'47.046479956'
p365
aS'QUW'
p366
aS'Queensway'
p367
asg67
I00
sg68
I00
sg69
F0
sg70
F160.934
sg71
I61
sg72
S''
sg74
F0
sg75
F0
sS'm'
F249750
sg76
I0
sg77
g337
sg81
F11.175972222222223
sg82
F64.373599999999996
sg83
F47046.479955999996
sg84
F0
sS'x'
F46211.512968994211
sg85
(lp368
sg102
F64.373599999999996
sg103
(lp369
S'46.281238786'
p370
aS'LAN+100'
p371
aS'1'
asg107
F597326.18000686762
sba(i__main__
Tr
p372
(dp373
g3
F5889689.4231897183
sg4
g5
sg8
I27
sg9
F25899.752356000001
sg10
F1
sg11
F0
sg12
I9223372036854775807
sg13
F4140100
sg14
I9223372036854775807
sg15
I01
sg16
F56.753665348143713
sg17
S'sig:WestRuislip:SBU+100'
p374
sg19
F40.233499999999999
sg20
I0
sg21
I9223372036854775807
sg22
F80.466999999999999
sg23
I4
sg24
I-1
sg25
I8
sg26
F0
sS'v'
F11.173990503213979
sg27
I930
sg28
I00
sg29
F49889.539999999994
sg30
F40.226365811570325
sg31
g32
sg35
F17.881555555555554
sg36
F51659.813999999998
sg37
I00
sg38
I00
sg39
I00
sg40
I9223372036854775807
sg41
S'green'
p375
sg43
F-0.00034506144897719778
sg44
F49.878170927630151
sg45
F0
sg46
F50130.940999999999
sg47
g184
sS'a'
F0
sg49
F1
sg50
F3.7826077965344433
sg51
F0
sg52
F0
sg53
I00
sg54
F132.85068680082065
sg55
I00
sg56
F0
sg57
F0
sg58
S'WestRuislip'
p376
sg60
S'MAIN19'
p377
sg62
(lp378
S'50.781758096'
p379
aS'WCI'
p380
aS'White-City'
p381
asg67
I00
sg68
I00
sg69
F0
sg70
F160.934
sg71
I67
sg72
S''
sg74
F0
sg75
F0
sS'm'
F249750
sg76
I0
sg77
(lp382
S'51.659814'
p383
aS'80.467'
p384
asg81
F11.175972222222223
sg82
F40.233499999999999
sg83
F50781.758095999998
sg84
F0
sS'x'
F49878.170927630148
sg85
(lp385
sg102
F40.233499999999999
sg103
(lp386
S'50.130941'
p387
aS'31150'
p388
aS'1'
asg107
F606692.79000654758
sba(i__main__
Tr
p389
(dp390
g3
F5876044.0360730868
sg4
g5
sg8
I31
sg9
F25899.752356000001
sg10
F1
sg11
F0
sg12
I9223372036854775807
sg13
F4140100
sg14
I9223372036854775807
sg15
I00
sg16
F188.38045084610056
sg17
S'sig:WestRuislip:37000'
p391
sg19
F96.560400000000001
sg20
I0
sg21
I9223372036854775807
sg22
F64.373599999999996
sg23
I4
sg24
I0
sg25
I11
sg26
F0
sS'v'
F20.357787405132076
sg27
I930
sg28
I00
sg29
F-1
sg30
F73.288034658475468
sg31
g32
sg35
F26.822333333333333
sg36
F72903.101999999999
sg37
I00
sg38
I01
sg39
I00
sg40
I9223372036854775807
sg41
S'green'
p392
sg43
F0.003958353494150889
sg44
F59.527220636091108
sg45
F272.51422933501681
sg46
F59545.580000000002
sg47
g48
sS'a'
F0.012359766323664631
sg49
F1
sg50
F64096.78229646838
sg51
F0
sg52
F0
sg53
I00
sg54
F272.51422933501681
sg55
I00
sg56
F0
sg57
F0.012359766323664631
sg58
S'WestRuislip'
p393
sg60
S'MAIN20'
p394
sg62
(lp395
S'60.766908126'
p396
aS'PVL'
p397
aS'Perivale'
p398
asg67
I00
sg68
I00
sg69
F0
sg70
F160.934
sg71
I79
sg72
S'WestRuislip'
p399
sg74
F0
sg75
F0
sS'm'
F249750
sg76
I0
sg77
g78
sg81
F17.881555555555554
sg82
F96.560400000000001
sg83
F60766.908125999995
sg84
F0
sS'x'
F59527.220636091108
sg85
(lp400
sg102
F96.560400000000001
sg103
(lp401
S'59.54558'
p402
aS'37000'
p403
aS'1'
asg107
F604526.89000661694
sba(i__main__
Tr
p404
(dp405
g3
F5848728.8858799404
sg4
g5
sg8
I34
sg9
F25899.752356000001
sg10
F1
sg11
F0
sg12
I9223372036854775807
sg13
F4140100
sg14
I9223372036854775807
sg15
I00
sg16
F0.086209204545454665
sg17
S'sig:WestRuislip:41000'
p406
sg19
F96.560400000000001
sg20
I0
sg21
I9223372036854775807
sg22
F64.373599999999996
sg23
I4
sg24
I0
sg25
I11
sg26
F0
sS'v'
F0.44200000000000034
sg27
I930
sg28
I01
sg29
F-1
sg30
F1.5912000000000013
sg31
g32
sg35
F26.822333333333333
sg36
F72903.101999999999
sg37
I00
sg38
I00
sg39
I00
sg40
I9223372036854775807
sg41
S'green'
p407
sg43
F0.0019406878718093569
sg44
F66.342543016378144
sg45
F272.51422933501681
sg46
F66451.740741999994
sg47
g48
sS'a'
F1.3
sg49
F1
sg50
F0
sg51
F0
sg52
F0
sg53
I00
sg54
F272.51422933501681
sg55
I00
sg56
F0
sg57
F1.3
sg58
S'WestRuislip'
p408
sg60
S'MAIN21'
p409
sg62
(lp410
S'69.91375295'
p411
aS'SRL'
p412
aS'South-Ruislip'
p413
asg67
I00
sg68
I00
sg69
F0
sg70
F160.934
sg71
I88
sg72
S'WestRuislip'
p414
sg74
F0
sg75
F0
sS'm'
F249750
sg76
I0
sg77
g78
sg81
F17.881555555555554
sg82
F96.560400000000001
sg83
F69913.752950000009
sg84
F0
sS'x'
F66342.543016378142
sg85
(lp415
sg102
F96.560400000000001
sg103
(lp416
S'66.451740742'
p417
aS'NHO+100'
p418
aS'1'
asg107
F604036.84000667918
sba(i__main__
Tr
p419
(dp420
g3
F5863508.4554941207
sg4
g110
sg8
I5
sg9
F25899.752356000001
sg10
F1
sg11
F0
sg12
I9223372036854775807
sg13
F4140100
sg14
I9223372036854775807
sg15
I00
sg16
F190.74760706393911
sg17
S'sig:Epping:6000'
p421
sg19
F96.560400000000001
sg20
I0
sg21
I9223372036854775807
sg22
F72.420299999999997
sg23
I4
sg24
I-1
sg25
I1
sg26
F0
sS'v'
F20.485268332704663
sg27
I930
sg28
I00
sg29
F-1
sg30
F73.746965997736794
sg31
g114
sg35
F26.822333333333333
sg36
F16093.4
sg37
I00
sg38
I00
sg39
I00
sg40
I9223372036854775807
sg41
S'green'
p422
sg43
F0.0015225052200139035
sg44
F10.001438305232812
sg45
F214.60495560132574
sg46
F11315.205166400001
sg47
g48
sS'a'
F0.0072399518169145591
sg49
F1
sg50
F37788.457142622487
sg51
F0
sg52
F0
sg53
I00
sg54
F214.60495560132574
sg55
I00
sg56
F0
sg57
F0.0072399518169145591
sg58
S'Epping'
p423
sg60
S'BRCH1'
p424
sg62
(lp425
S'11.2058827002'
p426
aS'GRF'
p427
aS'Greenford'
p428
asg67
I00
sg68
I00
sg69
F0
sg70
F160.934
sg71
I13
sg72
S''
sg74
F0
sg75
F0
sS'm'
F249750
sg76
I0
sg77
g124
sg81
F20.11675
sg82
F96.560400000000001
sg83
F11205.8827002
sg84
F0
sS'x'
F10001.438305232812
sg85
(lp429
sg102
F96.560400000000001
sg103
(lp430
S'11.3152051664'
p431
aS'GRF+100'
p432
aS'1'
asg107
F603938.83000661223
sba(i__main__
Tr
p433
(dp434
g3
F5774074.5245390078
sg4
g5
sg8
I1
sg9
F25899.752356000001
sg10
F1
sg11
F0
sg12
I9223372036854775807
sg13
F4140100
sg14
I9223372036854775807
sg15
I00
sg16
F194.09441831296058
sg17
S'sig:WestRuislip:2900'
p435
sg19
F96.560400000000001
sg20
I0
sg21
I9223372036854775807
sg22
F72.420299999999997
sg23
I4
sg24
I-1
sg25
I1
sg26
F0
sS'v'
F20.664165514494091
sg27
I930
sg28
I00
sg29
F-1
sg30
F74.390995852178733
sg31
g32
sg35
F26.822333333333333
sg36
F24140.099999999999
sg37
I00
sg38
I01
sg39
I00
sg40
I9223372036854775807
sg41
S'green'
p436
sg43
F0.0050800133208648212
sg44
F4.6490875753225351
sg45
F214.60495560132574
sg135
F1774.1500000000001
sg46
F4667.0860000000002
sg47
g48
sS'a'
F7.8018604878725596e-05
sg49
F1
sg50
F422.34592705029866
sg51
F0
sg52
F0
sg53
I00
sg54
F214.60495560132574
sg55
I00
sg56
F0
sg57
F7.8018604878725596e-05
sg58
S'WestRuislip'
p437
sg60
S'BRCH2'
p438
sg62
g254
sg67
I00
sg68
I00
sg69
F0
sg70
F160.934
sg71
I7
sg72
S''
sg74
F0
sg75
F0
sS'm'
F249750
sg76
I0
sg77
g258
sg81
F20.11675
sg82
F96.560400000000001
sg83
F5375.1795066000004
sg84
F0
sS'x'
F4649.0875753225355
sg85
(lp439
sg102
F96.560400000000001
sg103
(lp440
S'4.667086'
p441
aS'2900'
p442
aS'1'
asg107
F606691.58000649617
sba(i__main__
Tr
p443
(dp444
g3
F5894892.2513642786
sg4
g5
sg8
I13
sg9
F25899.752356000001
sg10
F1
sg11
F0
sg12
I9223372036854775807
sg13
F4140100
sg14
I9223372036854775807
sg15
I01
sg16
F145.05541350688839
sg17
S'sig:WestRuislip:22300'
p445
sg19
F64.373599999999996
sg20
I0
sg21
I9223372036854775807
sg22
F24.1401
sg23
I4
sg24
I-1
sg25
I4
sg26
F0
sS'v'
F17.863983590318103
sg27
I930
sg28
I00
sg29
F-1
sg30
F64.310340925145169
sg31
g32
sg35
F17.881555555555554
sg36
F38302.292000000001
sg37
I00
sg38
I00
sg39
I00
sg40
I9223372036854775807
sg41
S'green'
p446
sg43
F0.0020873598878247521
sg44
F35.998812030383377
sg45
F187.35353266782403
sg46
F36773.418999999994
sg47
g48
sS'a'
F0
sg49
F1
sg50
F8.6396310286969982
sg51
F0
sg52
F0
sg53
I00
sg54
F187.35353266782403
sg55
I00
sg56
F0
sg57
F0
sg58
S'WestRuislip'
p447
sg60
S'BRCH3'
p448
sg62
(lp449
S'38.02709486'
p450
aS'LIV'
p451
aS'Liverpool-Street'
p452
aS'X'
asg67
I00
sg68
I00
sg69
F0
sg70
F160.934
sg71
I47
sg72
S''
sg74
F0
sg75
F0
sS'm'
F249750
sg76
I0
sg77
(lp453
S'38.302292'
p454
aS'24.1401'
p455
asg81
F6.7055833333333332
sg82
F64.373599999999996
sg83
F38027.094859999997
sg84
F0
sS'x'
F35998.812030383378
sg85
(lp456
sg102
F64.373599999999996
sg103
(lp457
S'36.773419'
p458
aS'22850'
p459
aS'1'
asg107
F607130.81000655901
sba(i__main__
Tr
p460
(dp461
g3
F5901383.3291371362
sg4
g110
sg8
I16
sg9
F25899.752356000001
sg10
F1
sg11
F0
sg12
I9223372036854775807
sg13
F4140100
sg14
I9223372036854775807
sg15
I01
sg16
F145.05541350688839
sg17
S'sig:Epping:18000'
p462
sg19
F64.373599999999996
sg20
I0
sg21
I9223372036854775807
sg22
F24.1401
sg23
I4
sg24
I-1
sg25
I5
sg26
F0
sS'v'
F17.863983590318103
sg27
I930
sg28
I00
sg29
F-1
sg30
F64.310340925145169
sg31
g114
sg35
F17.881555555555554
sg36
F35003.145000000004
sg37
I00
sg38
I00
sg39
I00
sg40
I9223372036854775807
sg41
S'green'
p463
sg43
F0.001990843897665311
sg44
F29.308252859380669
sg45
F187.35353266782403
sg46
F29754.765392000001
sg47
g48
sS'a'
F0
sg49
F1
sg50
F8.6396310286969982
sg51
F0
sg52
F0
sg53
I00
sg54
F187.35353266782403
sg55
I00
sg56
F0
sg57
F0
sg58
S'Epping'
p464
sg60
S'BRCH4'
p465
sg62
(lp466
S'29.645491206'
p467
aS'MBL'
p468
aS'Marble-Arch'
p469
asg67
I00
sg68
I00
sg69
F0
sg70
F160.934
sg71
I37
sg72
S''
sg74
F0
sg75
F0
sS'm'
F249750
sg76
I0
sg77
g173
sg81
F6.7055833333333332
sg82
F64.373599999999996
sg83
F29645.491205999999
sg84
F0
sS'x'
F29308.252859380671
sg85
(lp470
sg102
F64.373599999999996
sg103
(lp471
S'29.754765392'
p472
aS'MBL+100'
p473
aS'1'
asg107
F598066.70000685053
sbasg102
F96.560400000000001
sg103
(lp474
S'70.81096'
p475
aS'44000'
p476
aS'1'
asg107
F599212.57000662165
sb.