(i__main__
Tr
p1
(dp2
S'mechWear'
p3
F12951292.403116379
sS'nextGRD'
p4
(lp5
S'0.0'
p6
aS'0.0'
p7
asS'STAcnt'
p8
I31
sS'maxSquareSpeed'
p9
F25899.752356000001
sS'consumptionCutOff'
p10
F1
sS'grade'
p11
F0
sS'nGRDx'
p12
I9223372036854775807
sS'admissionWear'
p13
F9180100
sS'transitionGRDx'
p14
I9223372036854775807
sS'coasting'
p15
I00
sS'BDzero'
p16
F152.36116038748244
sS'redisSIG'
p17
S'sig:Epping:SNR+100'
p18
sS'maxTIV'
p19
F96.560400000000001
sS'CRVcnt'
p20
I0
sS'nCRVx'
p21
I9223372036854775807
sS'nTIVvl'
p22
F40.233499999999999
sS'trip'
p23
I8
sS'pathCnt'
p24
I0
sS'TIVcnt'
p25
I10
sS'waitSta'
p26
F0
sS'v'
F18.308804430261638
sS'pax'
p27
I930
sS'startingPhase'
p28
I00
sS'advTIV'
p29
F-1
sS'vK'
p30
F65.911695948941897
sS'nextCRV'
p31
(lp32
S'0.0'
p33
aS'0.0'
p34
asS'cv'
p35
F26.822333333333333
sS'nTIVx'
p36
F73707.772000000012
sS'sigBrake'
p37
I00
sS'sigSpotted'
p38
I00
sS'inSta'
p39
I00
sS'transitionCRVx'
p40
I9223372036854775807
sS'advSIGcol'
p41
S'green'
p42
sS'aGaussFactor'
p43
F6.9957636168622213e-06
sS'PK'
p44
F52.634037358750838
sS'deltaBDtiv'
p45
F405.36491613583757
sS'nSIGx'
p46
F53108.220000000001
sS'nTIVtype'
p47
S'DEC'
p48
sS'a'
F0.097041008867998352
sS'ratioGRD'
p49
F1
sS'power'
p50
F452021.98803291703
sS'gradient'
p51
F0
sS'BDsta'
p52
F0
sS'initSwitchSeg'
p53
I00
sS'BDtiv'
p54
F405.36491613583757
sS'staBrake'
p55
I00
sS'waitReact'
p56
F0
sS'aFull'
p57
F0.097041008867998352
sS'segment'
p58
S'Epping'
p59
sS'name'
p60
S'MAIN1'
p61
sS'nextSTA'
p62
(lp63
S'53.988689914'
p64
aS'SWO'
p65
aS'South-Woodford'
p66
asS'react'
p67
I00
sS'atSig'
p68
I00
sS'deltaBDsta'
p69
F0
sS'tgtVk'
p70
F160.934
sS'SIGcnt'
p71
I68
sS'pathBranch'
p72
S'Epping'
p73
sS'oldGradient'
p74
F0
sS'critVk'
p75
F0
sS'm'
F249750
sS'GRDcnt'
p76
I0
sS'nextTIV'
p77
(lp78
S'73.707772'
p79
aS'40.2335'
p80
asS'nv'
p81
F11.175972222222223
sS'maxVk'
p82
F96.560400000000001
sS'nSTAx'
p83
F53988.689913999995
sS'DBrt'
p84
F0
sS'x'
F52634.037358750837
sS'trs'
p85
(lp86
(i__main__
Tr
p87
(dp88
g3
F12941769.796710746
sg4
g5
sg8
I32
sg9
F25899.752356000001
sg10
F1
sg11
F0
sg12
I9223372036854775807
sg13
F9180100
sg14
I9223372036854775807
sg15
I00
sg16
F27.035190830257243
sg17
S'sig:Epping:34700'
p89
sg19
F96.560400000000001
sg20
I0
sg21
I9223372036854775807
sg22
F40.233499999999999
sg23
I8
sg24
I0
sg25
I10
sg26
F0
sS'v'
F7.7066605161307393
sg27
I930
sg28
I00
sg29
F-1
sg30
F27.743977858070661
sg31
g32
sg35
F26.822333333333333
sg36
F73707.772000000012
sg37
I00
sg38
I00
sg39
I00
sg40
I9223372036854775807
sg41
S'green'
p90
sg43
F0.0036158140072703616
sg44
F56.421615184999432
sg45
F405.36491613583757
sg46
F56557.84029
sg47
g48
sS'a'
F-1.1000000000000001
sg49
F1
sg50
F0
sg51
F0
sg52
F0
sg53
I00
sg54
F405.36491613583757
sg55
I01
sg56
F0
sg57
F-1.1000000000000001
sg58
S'Epping'
p91
sg60
S'MAIN14'
p92
sg62
(lp93
S'56.448566104'
p94
aS'WOO'
p95
aS'Woodford'
p96
asg67
I00
sg68
I00
sg69
F0
sg70
F160.934
sg71
I72
sg72
S'Epping'
p97
sg74
F0
sg75
F0
sS'm'
F249750
sg76
I0
sg77
g78
sg81
F11.175972222222223
sg82
F96.560400000000001
sg83
F56448.566103999998
sg84
F0
sS'x'
F56421.615184999435
sg85
(lp98
sS'cTIVvl'
p99
F96.560400000000001
sS'nextSIG'
p100
(lp101
S'56.55784029'
p102
aS'WOO+100'
p103
aS'1'
asS'brakeWear'
p104
F1340920.7899902377
sba(i__main__
Tr
p105
(dp106
g3
F12962646.025845606
sg4
g5
sg8
I34
sg9
F25899.752356000001
sg10
F1
sg11
F0
sg12
I9223372036854775807
sg13
F9180100
sg14
I9223372036854775807
sg15
I00
sg16
F191.48274282574346
sg17
S'sig:Epping:37700'
p107
sg19
F96.560400000000001
sg20
I0
sg21
I9223372036854775807
sg22
F40.233499999999999
sg23
I8
sg24
I0
sg25
I10
sg26
F0
sS'v'
F20.524697214638227
sg27
I930
sg28
I00
sg29
F-1
sg30
F73.888909972697618
sg31
g32
sg35
F26.822333333333333
sg36
F73707.772000000012
sg37
I00
sg38
I00
sg39
I00
sg40
I9223372036854775807
sg41
S'green'
p108
sg43
F-0.0010343875986198994
sg44
F61.036729129225577
sg45
F405.36491613583757
sg46
F61641.423481999998
sg47
g48
sS'a'
F0.0056592149991174876
sg49
F1
sg50
F29597.949476265876
sg51
F0
sg52
F0
sg53
I00
sg54
F405.36491613583757
sg55
I00
sg56
F0
sg57
F0.0056592149991174876
sg58
S'Epping'
p109
sg60
S'MAIN2'
p110
sg62
(lp111
S'61.532149296'
p112
aS'LOU'
p113
aS'Loughton'
p114
asg67
I00
sg68
I00
sg69
F0
sg70
F160.934
sg71
I78
sg72
S'Epping'
p115
sg74
F0
sg75
F0
sS'm'
F249750
sg76
I0
sg77
g78
sg81
F11.175972222222223
sg82
F96.560400000000001
sg83
F61532.149296000003
sg84
F0
sS'x'
F61036.729129225576
sg85
(lp116
sg99
F96.560400000000001
sg100
(lp117
S'61.641423482'
p118
aS'LOU+100'
p119
aS'1'
asg104
F1343073.3799901353
sba(i__main__
Tr
p120
(dp121
g3
F12921467.503024288
sg4
g5
sg8
I36
sg9
F25899.752356000001
sg10
F1
sg11
F0
sg12
I9223372036854775807
sg13
F9180100
sg14
I9223372036854775807
sg15
I00
sg16
F103.95830573684273
sg17
S'sig:Epping:DBD+100'
p122
sg19
F96.560400000000001
sg20
I0
sg21
I9223372036854775807
sg22
F40.233499999999999
sg23
I8
sg24
I0
sg25
I10
sg26
F0
sS'v'
F15.124322879565286
sg27
I930
sg28
I00
sg29
F-1
sg30
F54.447562366435029
sg31
g32
sg35
F26.822333333333333
sg36
F73707.772000000012
sg37
I00
sg38
I00
sg39
I00
sg40
I9223372036854775807
sg41
S'green'
p123
sg43
F-0.00016231706060189412
sg44
F64.553409698644728
sg45
F405.36491613583757
sS'sigPoll'
p124
F245.72999999999999
sg46
F65339.203999999998
sg47
g48
sS'a'
F0.2437889643589887
sg49
F1
sg50
F936671.12708146067
sg51
F0
sg52
F0
sg53
I00
sg54
F405.36491613583757
sg55
I00
sg56
F0
sg57
F0.2437889643589887
sg58
S'Epping'
p125
sg60
S'MAIN15'
p126
sg62
(lp127
S'69.130326238'
p128
aS'THB'
p129
aS'Theydon-Bois'
p130
asg67
I00
sg68
I00
sg69
F0
sg70
F160.934
sg71
I82
sg72
S'Epping'
p131
sg74
F0
sg75
F0
sS'm'
F249750
sg76
I0
sg77
g78
sg81
F11.175972222222223
sg82
F96.560400000000001
sg83
F69130.326237999994
sg84
F0
sS'x'
F64553.409698644726
sg85
(lp132
sg99
F96.560400000000001
sg100
(lp133
S'65.339204'
p134
aS'40600'
p135
aS'1'
asg104
F1340107.6699901905
sba(i__main__
Tr
p136
(dp137
g3
F13026569.729010697
sg4
(lp138
S'0.0'
p139
aS'0.0'
p140
asg8
I2
sg9
F25899.752356000001
sg10
F1
sg11
F0
sg12
I9223372036854775807
sg13
F9180100
sg14
I9223372036854775807
sg15
I00
sg16
F48.332122987944466
sg17
S'sig:WestRuislip:THB+100'
p141
sg19
F96.560400000000001
sg20
I0
sg21
I9223372036854775807
sg22
F72.420299999999997
sg23
I9
sg24
I-1
sg25
I1
sg26
F0
sS'v'
F10.314444614430288
sg27
I930
sg28
I00
sg29
F-1
sg30
F37.132000611949039
sg31
(lp142
S'0.0'
p143
aS'0.0'
p144
asg35
F26.822333333333333
sg36
F24140.099999999999
sg37
I00
sg38
I01
sg39
I00
sg40
I9223372036854775807
sg41
S'green'
p145
sg43
F0.0044780031047104377
sg44
F5.436463478784229
sg45
F214.60495560132574
sg46
F5484.5019728000007
sg47
g48
sS'a'
F0.55363905388850099
sg49
F1
sg50
F1449151.3604710507
sg51
F0
sg52
F0
sg53
I00
sg54
F214.60495560132574
sg55
I00
sg56
F0
sg57
F0.55363905388850099
sg58
S'WestRuislip'
p146
sg60
S'MAIN3'
p147
sg62
(lp148
S'10.18551286'
p149
aS'DBD'
p150
aS'Debden'
p151
asg67
I00
sg68
I00
sg69
F0
sg70
F160.934
sg71
I8
sg72
S''
sg74
F0
sg75
F0
sS'm'
F249750
sg76
I0
sg77
(lp152
S'24.1401'
p153
aS'72.4203'
p154
asg81
F20.11675
sg82
F96.560400000000001
sg83
F10185.512859999999
sg84
F0
sS'x'
F5436.4634787842288
sg85
(lp155
sg99
F96.560400000000001
sg100
(lp156
S'5.4845019728'
p157
aS'THB+100'
p158
aS'1'
asg104
F1345402.6299900967
sba(i__main__
Tr
p159
(dp160
g3
F13073949.714253208
sg4
g138
sg8
I4
sg9
F25899.752356000001
sg10
F1
sg11
F0
sg12
I9223372036854775807
sg13
F9180100
sg14
I9223372036854775807
sg15
I00
sg16
F166.28128021440628
sg17
S'sig:WestRuislip:LOU+100'
p161
sg19
F96.560400000000001
sg20
I0
sg21
I9223372036854775807
sg22
F72.420299999999997
sg23
I9
sg24
I-1
sg25
I1
sg26
F0
sS'v'
F19.126703693869363
sg27
I930
sg28
I00
sg29
F-1
sg30
F68.856133297929702
sg31
g142
sg35
F26.822333333333333
sg36
F24140.099999999999
sg37
I00
sg38
I00
sg39
I00
sg40
I9223372036854775807
sg41
S'green'
p162
sg43
F0.0010013639333226261
sg44
F13.745375747179661
sg45
F214.60495560132574
sg46
F14001.258
sg47
g48
sS'a'
F0.062623542542881008
sg49
F1
sg50
F304870.31920331437
sg51
F0
sg52
F0
sg53
I00
sg54
F214.60495560132574
sg55
I00
sg56
F0
sg57
F0.062623542542881008
sg58
S'WestRuislip'
p163
sg60
S'BRCH7'
p164
sg62
(lp165
S'15.4331360782'
p166
aS'BHH'
p167
aS'Buckhurst-Hill'
p168
asg67
I00
sg68
I00
sg69
F0
sg70
F160.934
sg71
I19
sg72
S''
sg74
F0
sg75
F0
sS'm'
F249750
sg76
I0
sg77
g152
sg81
F20.11675
sg82
F96.560400000000001
sg83
F15433.136078200001
sg84
F0
sS'x'
F13745.375747179662
sg85
(lp169
sg99
F96.560400000000001
sg100
(lp170
S'14.001258'
p171
aS'8700'
p172
aS'1'
asg104
F1331064.1299906638
sba(i__main__
Tr
p173
(dp174
g3
F13157948.523810396
sg4
g138
sg8
I10
sg9
F25899.752356000001
sg10
F1
sg11
F0
sg12
I9223372036854775807
sg13
F9180100
sg14
I9223372036854775807
sg15
I00
sg16
F172.23409717174349
sg17
S'sig:WestRuislip:17300'
p175
sg19
F80.466999999999999
sg20
I0
sg21
I9223372036854775807
sg22
F64.373599999999996
sg23
I9
sg24
I-1
sg25
I3
sg26
F0
sS'v'
F19.465982520010336
sg27
I930
sg28
I00
sg29
F-1
sg30
F70.077537072037217
sg31
g142
sg35
F22.351944444444445
sg36
F34118.008000000002
sg37
I00
sg38
I01
sg39
I00
sg40
I9223372036854775807
sg41
S'green'
p176
sg43
F0.0058121730269428554
sg44
F27.69357140732248
sg45
F122.63140320075763
sg46
F27841.581999999999
sg47
g48
sS'a'
F0.048606591357881868
sg49
F1
sg50
F240875.86381103256
sg51
F0
sg52
F0
sg53
I00
sg54
F122.63140320075763
sg55
I00
sg56
F0
sg57
F0.048606591357881868
sg58
S'WestRuislip'
p177
sg60
S'BRCH8'
p178
sg62
(lp179
S'28.989524222'
p180
aS'STR'
p181
aS'Stratford'
p182
aS'X'
asg67
I00
sg68
I00
sg69
F0
sg70
F160.934
sg71
I36
sg72
S''
sg74
F0
sg75
F0
sS'm'
F249750
sg76
I0
sg77
(lp183
S'34.118008'
p184
aS'64.3736'
p185
asg81
F17.881555555555554
sg82
F80.466999999999999
sg83
F28989.524222
sg84
F0
sS'x'
F27693.571407322481
sg85
(lp186
sg99
F80.466999999999999
sg100
(lp187
S'27.841582'
p188
aS'17300'
p189
aS'1'
asg104
F1325753.4399906672
sba(i__main__
Tr
p190
(dp191
g3
F13154455.518608131
sg4
g138
sg8
I13
sg9
F25899.752356000001
sg10
F1
sg11
F0
sg12
I9223372036854775807
sg13
F9180100
sg14
I9223372036854775807
sg15
I01
sg16
F145.05541350688839
sg17
S'sig:WestRuislip:BTH+100'
p192
sg19
F64.373599999999996
sg20
I0
sg21
I9223372036854775807
sg22
F24.1401
sg23
I9
sg24
I-1
sg25
I4
sg26
F0
sS'v'
F17.863983590318103
sg27
I930
sg28
I00
sg29
F-1
sg30
F64.310340925145169
sg31
g142
sg35
F17.881555555555554
sg36
F38302.292000000001
sg37
I00
sg38
I00
sg39
I00
sg40
I9223372036854775807
sg41
S'green'
p193
sg43
F0.0019574574703405999
sg44
F35.718347513355148
sg45
F187.35353266782403
sg46
F35888.281999999999
sg47
g48
sS'a'
F0
sg49
F1
sg50
F8.6396310286969982
sg51
F0
sg52
F0
sg53
I00
sg54
F187.35353266782403
sg55
I00
sg56
F0
sg57
F0
sg58
S'WestRuislip'
p194
sg60
S'MAIN7'
p195
sg62
(lp196
S'38.02709486'
p197
aS'LIV'
p198
aS'Liverpool-Street'
p199
aS'X'
asg67
I00
sg68
I00
sg69
F0
sg70
F160.934
sg71
I46
sg72
S''
sg74
F0
sg75
F0
sS'm'
F249750
sg76
I0
sg77
(lp200
S'38.302292'
p201
aS'24.1401'
p202
asg81
F6.7055833333333332
sg82
F64.373599999999996
sg83
F38027.094859999997
sg84
F0
sS'x'
F35718.347513355147
sg85
(lp203
sg99
F64.373599999999996
sg100
(lp204
S'35.888282'
p205
aS'22300'
p206
aS'1'
asg104
F1325873.2299907855
sba(i__main__
Tr
p207
(dp208
g3
F13093956.526757786
sg4
g138
sg8
I21
sg9
F25899.752356000001
sg10
F1
sg11
F0
sg12
I9223372036854775807
sg13
F9180100
sg14
I9223372036854775807
sg15
I00
sg16
F24.763129511558031
sg17
S'sig:WestRuislip:OXF+100'
p209
sg19
F64.373599999999996
sg20
I0
sg21
I9223372036854775807
sg22
F40.233499999999999
sg23
I9
sg24
I-1
sg25
I7
sg26
F0
sS'v'
F7.3854242619823518
sg27
I930
sg28
I00
sg29
F-1
sg30
F26.587527343136468
sg31
g142
sg35
F17.881555555555554
sg36
F49889.539999999994
sg37
I00
sg38
I00
sg39
I00
sg40
I9223372036854775807
sg41
S'green'
p210
sg43
F0.0023154400867799849
sg44
F44.172659207277214
sg45
F132.85068680082065
sg46
F44258.620274000001
sg47
g48
sS'a'
F0.88859274225120355
sg49
F1
sg50
F1667465.7332128414
sg51
F0
sg52
F0
sg53
I00
sg54
F132.85068680082065
sg55
I00
sg56
F0
sg57
F0.88859274225120355
sg58
S'WestRuislip'
p211
sg60
S'MAIN8'
p212
sg62
(lp213
S'44.860030632'
p214
aS'MBL'
p215
aS'Marble-Arch'
p216
asg67
I00
sg68
I00
sg69
F0
sg70
F160.934
sg71
I58
sg72
S''
sg74
F0
sg75
F0
sS'm'
F249750
sg76
I0
sg77
(lp217
S'49.88954'
p218
aS'40.2335'
p219
asg81
F11.175972222222223
sg82
F64.373599999999996
sg83
F44860.030631999995
sg84
F0
sS'x'
F44172.659207277211
sg85
(lp220
sg99
F64.373599999999996
sg100
(lp221
S'44.258620274'
p222
aS'BST+100'
p223
aS'1'
asg104
F1332698.8399906687
sba(i__main__
Tr
p224
(dp225
g3
F13024413.783081323
sg4
g138
sg8
I27
sg9
F25899.752356000001
sg10
F1
sg11
F0
sg12
I9223372036854775807
sg13
F9180100
sg14
I9223372036854775807
sg15
I00
sg16
F28.418408553599839
sg17
S'sig:WestRuislip:31150'
p226
sg19
F40.233499999999999
sg20
I0
sg21
I9223372036854775807
sg22
F80.466999999999999
sg23
I9
sg24
I-1
sg25
I8
sg26
F0
sS'v'
F7.9014905032142071
sg27
I930
sg28
I00
sg29
F-1
sg30
F28.445365811571147
sg31
g142
sg35
F17.881555555555554
sg36
F51659.813999999998
sg37
I00
sg38
I00
sg39
I00
sg40
I9223372036854775807
sg41
S'green'
p227
sg43
F-0.0018842338023873685
sg44
F50.753414221536339
sg45
F0
sg46
F50891.032282
sg47
S'INC'
p228
sS'a'
F-1.1000000000000001
sg49
F1
sg50
F0
sg51
F0
sg52
F0
sg53
I00
sg54
F132.85068680082065
sg55
I01
sg56
F0
sg57
F-1.1000000000000001
sg58
S'WestRuislip'
p229
sg60
S'MAIN9'
p230
sg62
(lp231
S'50.781758096'
p232
aS'WCI'
p233
aS'White-City'
p234
asg67
I00
sg68
I00
sg69
F0
sg70
F160.934
sg71
I68
sg72
S''
sg74
F0
sg75
F0
sS'm'
F249750
sg76
I0
sg77
(lp235
S'51.659814'
p236
aS'80.467'
p237
asg81
F11.175972222222223
sg82
F40.233499999999999
sg83
F50781.758095999998
sg84
F0
sS'x'
F50753.414221536339
sg85
(lp238
sg99
F40.233499999999999
sg100
(lp239
S'50.891032282'
p240
aS'WCI+100'
p241
aS'1'
asg104
F1343754.6099903597
sba(i__main__
Tr
p242
(dp243
g3
F12993119.332697071
sg4
g138
sg8
I31
sg9
F25899.752356000001
sg10
F1
sg11
F0
sg12
I9223372036854775807
sg13
F9180100
sg14
I9223372036854775807
sg15
I00
sg16
F190.56699374567341
sg17
S'sig:WestRuislip:37000'
p244
sg19
F96.560400000000001
sg20
I0
sg21
I9223372036854775807
sg22
F64.373599999999996
sg23
I8
sg24
I0
sg25
I11
sg26
F0
sS'v'
F20.475569548043595
sg27
I930
sg28
I00
sg29
F-1
sg30
F73.712050372956938
sg31
g142
sg35
F26.822333333333333
sg36
F72903.101999999999
sg37
I00
sg38
I00
sg39
I00
sg40
I9223372036854775807
sg41
S'green'
p245
sg43
F-0.0017006655883263656
sg44
F59.772583071706606
sg45
F272.51422933501681
sg46
F60189.315999999999
sg47
g48
sS'a'
F0.007628983115948851
sg49
F1
sg50
F39799.288123529077
sg51
F0
sg52
F0
sg53
I00
sg54
F272.51422933501681
sg55
I00
sg56
F0
sg57
F0.007628983115948851
sg58
S'WestRuislip'
p246
sg60
S'MAIN11'
p247
sg62
(lp248
S'60.766908126'
p249
aS'PVL'
p250
aS'Perivale'
p251
asg67
I00
sg68
I00
sg69
F0
sg70
F160.934
sg71
I80
sg72
S'WestRuislip'
p252
sg74
F0
sg75
F0
sS'm'
F249750
sg76
I0
sg77
(lp253
S'72.903102'
p254
aS'64.3736'
p255
asg81
F17.881555555555554
sg82
F96.560400000000001
sg83
F60766.908125999995
sg84
F0
sS'x'
F59772.583071706606
sg85
(lp256
sg99
F96.560400000000001
sg100
(lp257
S'60.189316'
p258
aS'37400'
p259
aS'1'
asg104
F1344175.6899902709
sba(i__main__
Tr
p260
(dp261
g3
F12994560.18256836
sg4
g138
sg8
I34
sg9
F25899.752356000001
sg10
F1
sg11
F0
sg12
I9223372036854775807
sg13
F9180100
sg14
I9223372036854775807
sg15
I00
sg16
F179.74234117564436
sg17
S'sig:WestRuislip:41900'
p262
sg19
F96.560400000000001
sg20
I0
sg21
I9223372036854775807
sg22
F64.373599999999996
sg23
I8
sg24
I0
sg25
I11
sg26
F0
sS'v'
F19.885658261064524
sg27
I930
sg28
I00
sg29
F-1
sg30
F71.588369739832288
sg31
g142
sg35
F26.822333333333333
sg36
F72903.101999999999
sg37
I00
sg38
I00
sg39
I00
sg40
I9223372036854775807
sg41
S'green'
p263
sg43
F-0.00047663679663617332
sg44
F67.442770320086296
sg45
F272.51422933501681
sg46
F68236.016000000003
sg47
g48
sS'a'
F0.031449369543595694
sg49
F1
sg50
F159252.04510069379
sg51
F0
sg52
F0
sg53
I00
sg54
F272.51422933501681
sg55
I00
sg56
F0
sg57
F0.031449369543595694
sg58
S'WestRuislip'
p264
sg60
S'MAIN18'
p265
sg62
(lp266
S'69.91375295'
p267
aS'SRL'
p268
aS'South-Ruislip'
p269
asg67
I00
sg68
I00
sg69
F0
sg70
F160.934
sg71
I90
sg72
S'WestRuislip'
p270
sg74
F0
sg75
F0
sS'm'
F249750
sg76
I0
sg77
g253
sg81
F17.881555555555554
sg82
F96.560400000000001
sg83
F69913.752950000009
sg84
F0
sS'x'
F67442.770320086303
sg85
(lp271
sg99
F96.560400000000001
sg100
(lp272
S'68.236016'
p273
aS'42400'
p274
aS'1'
asg104
F1348634.5399900177
sba(i__main__
Tr
p275
(dp276
g3
F13001610.397326017
sg4
g138
sg8
I36
sg9
F25899.752356000001
sg10
F1
sg11
F0
sg12
I9223372036854775807
sg13
F9180100
sg14
I9223372036854775807
sg15
I01
sg16
F145.33398170420048
sg17
S'sig:WestRuislip:44900'
p277
sg19
F64.373599999999996
sg20
I0
sg21
I9223372036854775807
sg22
F32.186799999999998
sg23
I8
sg24
I0
sg25
I12
sg26
F0
sS'v'
F17.881128592715871
sg27
I930
sg28
I00
sg29
F72903.101999999999
sg30
F64.372062933777144
sg31
g142
sg35
F17.881555555555554
sg36
F74029.639999999999
sg37
I00
sg38
I00
sg39
I00
sg40
I9223372036854775807
sg41
S'green'
p278
sg43
F-0.0034877549781945441
sg44
F72.878864249795342
sg45
F163.50853760101006
sg46
F73305.436999999991
sg47
g48
sS'a'
F0
sg49
F1
sg50
F8.656108898277628
sg51
F0
sg52
F0
sg53
I00
sg54
F163.50853760101006
sg55
I00
sg56
F0
sg57
F0
sg58
S'WestRuislip'
p279
sg60
S'MAIN12'
p280
sg62
(lp281
S'74.195723888'
p282
aS'WRL'
p283
aS'West-Ruislip'
p284
asg67
I00
sg68
I00
sg69
F0
sg70
F160.934
sg71
I96
sg72
S'WestRuislip'
p285
sg74
F0
sg75
F0
sS'm'
F249750
sg76
I0
sg77
(lp286
S'74.02964'
p287
aS'32.1868'
p288
asg81
F8.940777777777777
sg82
F64.373599999999996
sg83
F74195.723888000008
sg84
F0
sS'x'
F72878.864249795341
sg85
(lp289
sg99
F64.373599999999996
sg100
(lp290
S'73.305437'
p291
aS'45550'
p292
aS'1'
asg104
F1349042.3099900857
sba(i__main__
Tr
p293
(dp294
g3
F12978701.200172616
sg4
g5
sg8
I5
sg9
F25899.752356000001
sg10
F1
sg11
F0
sg12
I9223372036854775807
sg13
F9180100
sg14
I9223372036854775807
sg15
I00
sg16
F0
sg17
S'sig:Epping:4750'
p295
sg19
F96.560400000000001
sg20
I0
sg21
I9223372036854775807
sg22
F72.420299999999997
sg23
I9
sg24
I-1
sg25
I1
sg26
F45908.400000000001
sS'v'
F0
sg27
I930
sg28
I01
sg29
F-1
sg30
F0
sg31
g32
sg35
F26.822333333333333
sg36
F16093.4
sg37
I00
sg38
I00
sg39
I01
sg40
I9223372036854775807
sg41
S'green'
p296
sg43
F0.002472286437322193
sg44
F8.1629913141595427
sg45
F214.60495560132574
sg46
F8272.3133746000003
sg47
g48
sS'a'
F0
sg49
F1
sg50
F0
sg51
F0
sg52
F0
sg53
I00
sg54
F214.60495560132574
sg55
I00
sg56
F0
sg57
F0
sg58
S'Epping'
p297
sg60
S'MAIN13'
p298
sg62
(lp299
S'11.2058827002'
p300
aS'GRF'
p301
aS'Greenford'
p302
asg67
I00
sg68
I00
sg69
F0
sg70
F160.934
sg71
I11
sg72
S''
sg74
F0
sg75
F0
sS'm'
F249750
sg76
I0
sg77
(lp303
S'16.0934'
p304
aS'72.4203'
p305
asg81
F20.11675
sg82
F96.560400000000001
sg83
F11205.8827002
sg84
F0
sS'x'
F8162.9913141595434
sg85
(lp306
sg99
F96.560400000000001
sg100
(lp307
S'8.2723133746'
p308
aS'NHO+100'
p309
aS'1'
asg104
F1348825.719990052
sba(i__main__
Tr
p310
(dp311
g3
F13024634.319949653
sg4
g5
sg8
I10
sg9
F25899.752356000001
sg10
F1
sg11
F0
sg12
I9223372036854775807
sg13
F9180100
sg14
I9223372036854775807
sg15
I01
sg16
F56.766188110815847
sg17
S'sig:Epping:13900'
p312
sg19
F40.233499999999999
sg20
I0
sg21
I9223372036854775807
sg22
F64.373599999999996
sg23
I9
sg24
I-1
sg25
I4
sg26
F0
sS'v'
F11.175223212258217
sg27
I930
sg28
I00
sg29
F-1
sg30
F40.23080356412958
sg31
g32
sg35
F24.587138888888887
sg36
F23979.166000000001
sg37
I00
sg38
I00
sg39
I00
sg40
I9223372036854775807
sg41
S'green'
p313
sg43
F-0.00064812346382423316
sg44
F23.013947709318362
sg45
F0
sg46
F23094.028999999999
sg47
g228
sS'a'
F0
sg49
F1
sg50
F3.7832550770024347
sg51
F0
sg52
F0
sg53
I00
sg54
F327.01707520202007
sg55
I00
sg56
F0
sg57
F0
sg58
S'Epping'
p314
sg60
S'BRCH9'
p315
sg62
(lp316
S'23.705417266'
p317
aS'WCI'
p318
aS'White-City'
p319
asg67
I00
sg68
I00
sg69
F0
sg70
F160.934
sg71
I27
sg72
S''
sg74
F0
sg75
F0
sS'm'
F249750
sg76
I0
sg77
(lp320
S'23.979166'
p321
aS'64.3736'
p322
asg81
F11.175972222222223
sg82
F40.233499999999999
sg83
F23705.417266
sg84
F0
sS'x'
F23013.947709318363
sg85
(lp323
sg99
F40.233499999999999
sg100
(lp324
S'23.094029'
p325
aS'14350'
p326
aS'1'
asg104
F1346861.88999015
sba(i__main__
Tr
p327
(dp328
g3
F12984299.97996307
sg4
g5
sg8
I12
sg9
F25899.752356000001
sg10
F1
sg11
F0
sg12
I9223372036854775807
sg13
F9180100
sg14
I9223372036854775807
sg15
I01
sg16
F145.05541350688839
sg17
S'sig:Epping:15850'
p329
sg19
F64.373599999999996
sg20
I0
sg21
I9223372036854775807
sg22
F24.1401
sg23
I9
sg24
I-1
sg25
I5
sg26
F0
sS'v'
F17.863983590318103
sg27
I930
sg28
I00
sg29
F-1
sg30
F64.310340925145169
sg31
g32
sg35
F17.881555555555554
sg36
F35003.145000000004
sg37
I00
sg38
I00
sg39
I00
sg40
I9223372036854775807
sg41
S'green'
p330
sg43
F-0.00059640581551898139
sg44
F25.625370682423899
sg45
F187.35353266782403
sg46
F25983.116168
sg47
g48
sS'a'
F0
sg49
F1
sg50
F8.6396310286969982
sg51
F0
sg52
F0
sg53
I00
sg54
F187.35353266782403
sg55
I00
sg56
F0
sg57
F0
sg58
S'Epping'
p331
sg60
S'MAIN16'
p332
sg62
(lp333
S'25.873681048'
p334
aS'HPA'
p335
aS'Holland-Park'
p336
asg67
I00
sg68
I00
sg69
F0
sg70
F160.934
sg71
I32
sg72
S''
sg74
F0
sg75
F0
sS'm'
F249750
sg76
I0
sg77
(lp337
S'35.003145'
p338
aS'24.1401'
p339
asg81
F6.7055833333333332
sg82
F64.373599999999996
sg83
F25873.681048000002
sg84
F0
sS'x'
F25625.370682423898
sg85
(lp340
sg99
F64.373599999999996
sg100
(lp341
S'25.983116168'
p342
aS'HPA+100'
p343
aS'1'
asg104
F1326902.9399906497
sba(i__main__
Tr
p344
(dp345
g3
F13019029.51305848
sg4
g5
sg8
I15
sg9
F25899.752356000001
sg10
F1
sg11
F0
sg12
I9223372036854775807
sg13
F9180100
sg14
I9223372036854775807
sg15
I00
sg16
F79.133816915984738
sg17
S'sig:Epping:QUW+100'
p346
sg19
F64.373599999999996
sg20
I0
sg21
I9223372036854775807
sg22
F24.1401
sg23
I9
sg24
I-1
sg25
I5
sg26
F0
sS'v'
F13.188983590317829
sg27
I930
sg28
I00
sg29
F-1
sg30
F47.480340925144183
sg31
g32
sg35
F17.881555555555554
sg36
F35003.145000000004
sg37
I00
sg38
I00
sg39
I00
sg40
I9223372036854775807
sg41
S'green'
p347
sg43
F0.00025607771308963677
sg44
F28.236362692659139
sg45
F187.35353266782403
sg46
F28424.645882000001
sg47
g48
sS'a'
F-1.1000000000000001
sg49
F1
sg50
F0
sg51
F0
sg52
F0
sg53
I00
sg54
F187.35353266782403
sg55
I01
sg56
F0
sg57
F-1.1000000000000001
sg58
S'Epping'
p348
sg60
S'MAIN17'
p349
sg62
(lp350
S'28.315371696'
p351
aS'LAN'
p352
aS'Lancaster-Gate'
p353
asg67
I00
sg68
I00
sg69
F0
sg70
F160.934
sg71
I35
sg72
S''
sg74
F0
sg75
F0
sS'm'
F249750
sg76
I0
sg77
g337
sg81
F6.7055833333333332
sg82
F64.373599999999996
sg83
F28315.371695999998
sg84
F0
sS'x'
F28236.362692659139
sg85
(lp354
sg99
F64.373599999999996
sg100
(lp355
S'28.424645882'
p356
aS'LAN+100'
p357
aS'1'
asg104
F1342544.6099903251
sba(i__main__
Tr
p358
(dp359
g3
F13020377.027176423
sg4
g5
sg8
I18
sg9
F25899.752356000001
sg10
F1
sg11
F0
sg12
I9223372036854775807
sg13
F9180100
sg14
I9223372036854775807
sg15
I00
sg16
F139.27249565286124
sg17
S'sig:Epping:BST+100'
p360
sg19
F64.373599999999996
sg20
I0
sg21
I9223372036854775807
sg22
F24.1401
sg23
I9
sg24
I-1
sg25
I5
sg26
F0
sS'v'
F17.498770634227942
sg27
I930
sg28
I00
sg29
F-1
sg30
F62.995574283220591
sg31
g32
sg35
F17.881555555555554
sg36
F35003.145000000004
sg37
I00
sg38
I00
sg39
I00
sg40
I9223372036854775807
sg41
S'green'
p361
sg43
F0.00057991258834734179
sg44
F30.818332148132107
sg45
F187.35353266782403
sg46
F31084.884901999998
sg47
g48
sS'a'
F-1.1000000000000001
sg49
F1
sg50
F572171.48983924068
sg51
F0
sg52
F0
sg53
I00
sg54
F187.35353266782403
sg55
I01
sg56
F0
sg57
F-1.1000000000000001
sg58
S'Epping'
p362
sg60
S'BRCH6'
p363
sg62
(lp364
S'30.957425174'
p365
aS'OXF'
p366
aS'Oxford-Circus'
p367
aS'X'
asg67
I00
sg68
I00
sg69
F0
sg70
F160.934
sg71
I39
sg72
S''
sg74
F0
sg75
F0
sS'm'
F249750
sg76
I0
sg77
g337
sg81
F6.7055833333333332
sg82
F64.373599999999996
sg83
F30957.425174
sg84
F0
sS'x'
F30818.332148132107
sg85
(lp368
sg99
F64.373599999999996
sg100
(lp369
S'31.084884902'
p370
aS'OXF+100'
p371
aS'1'
asg104
F1340955.8799904159
sba(i__main__
Tr
p372
(dp373
g3
F13032417.232727665
sg4
g5
sg8
I22
sg9
F25899.752356000001
sg10
F1
sg11
F0
sg12
I9223372036854775807
sg13
F9180100
sg14
I9223372036854775807
sg15
I00
sg16
F65.525294638442389
sg17
S'sig:Epping:21350'
p374
sg19
F24.1401
sg20
I0
sg21
I9223372036854775807
sg22
F48.280200000000001
sg23
I9
sg24
I-1
sg25
I6
sg26
F0
sS'v'
F12.000983590317912
sg27
I930
sg28
I00
sg29
F35003.145000000004
sg30
F43.20354092514448
sg31
g32
sg35
F17.881555555555554
sg36
F35968.749000000003
sg37
I00
sg38
I00
sg39
I00
sg40
I9223372036854775807
sg41
S'green'
p375
sg43
F0.0013208718006199936
sg44
F34.827637074067312
sg45
F0
sg46
F35002.501264000006
sg47
g228
sS'a'
F-1.1000000000000001
sg49
F1
sg50
F0
sg51
F0
sg52
F0
sg53
I00
sg54
F187.35353266782403
sg55
I01
sg56
F0
sg57
F-1.1000000000000001
sg58
S'Epping'
p376
sg60
S'MAIN19'
p377
sg62
(lp378
S'34.893066144'
p379
aS'SPA'
p380
aS'Saint-Pauls'
p381
asg67
I00
sg68
I00
sg69
F0
sg70
F160.934
sg71
I45
sg72
S''
sg74
F0
sg75
F0
sS'm'
F249750
sg76
I0
sg77
(lp382
S'35.968749'
p383
aS'48.2802'
p384
asg81
F6.7055833333333332
sg82
F24.1401
sg83
F34893.066144000004
sg84
F0
sS'x'
F34827.637074067308
sg85
(lp385
sg99
F24.1401
sg100
(lp386
S'35.002501264'
p387
aS'SPA+100'
p388
aS'1'
asg104
F1350788.3399900277
sba(i__main__
Tr
p389
(dp390
g3
F12996922.361137306
sg4
g5
sg8
I27
sg9
F25899.752356000001
sg10
F1
sg11
F0
sg12
I9223372036854775807
sg13
F9180100
sg14
I9223372036854775807
sg15
I00
sg16
F187.96591462013771
sg17
S'sig:Epping:26600'
p391
sg19
F80.466999999999999
sg20
I0
sg21
I9223372036854775807
sg22
F64.373599999999996
sg23
I9
sg24
I-1
sg25
I8
sg26
F0
sS'v'
F20.335380715765027
sg27
I930
sg28
I00
sg29
F-1
sg30
F73.207370576754101
sg31
g32
sg35
F22.351944444444445
sg36
F46670.860000000001
sg37
I00
sg38
I00
sg39
I00
sg40
I9223372036854775807
sg41
S'green'
p392
sg43
F-0.0024352309158575543
sg44
F43.384212558159383
sg45
F122.63140320075763
sg46
F43774.048000000003
sg47
g48
sS'a'
F0.013261100144680443
sg49
F1
sg50
F68693.62913457377
sg51
F0
sg52
F0
sg53
I00
sg54
F122.63140320075763
sg55
I00
sg56
F0
sg57
F0.013261100144680443
sg58
S'Epping'
p393
sg60
S'MAIN20'
p394
sg62
(lp395
S'45.515997616'
p396
aS'STR'
p397
aS'Stratford'
p398
aS'X'
asg67
I00
sg68
I00
sg69
F0
sg70
F160.934
sg71
I56
sg72
S''
sg74
F0
sg75
F0
sS'm'
F249750
sg76
I0
sg77
(lp399
S'46.67086'
p400
aS'64.3736'
p401
asg81
F17.881555555555554
sg82
F80.466999999999999
sg83
F45515.997616000001
sg84
F0
sS'x'
F43384.212558159386
sg85
(lp402
sg99
F80.466999999999999
sg100
(lp403
S'43.774048'
p404
aS'27200'
p405
aS'1'
asg104
F1348878.9599901966
sba(i__main__
Tr
p406
(dp407
g3
F12954808.198126562
sg4
g5
sg8
I29
sg9
F25899.752356000001
sg10
F1
sg11
F0
sg12
I9223372036854775807
sg13
F9180100
sg14
I9223372036854775807
sg15
I01
sg16
F145.05541350688839
sg17
S'sig:Epping:30100'
p408
sg19
F64.373599999999996
sg20
I0
sg21
I9223372036854775807
sg22
F96.560400000000001
sg23
I9
sg24
I0
sg25
I9
sg26
F0
sS'v'
F17.863983590318103
sg27
I930
sg28
I00
sg29
F-1
sg30
F64.310340925145169
sg31
g32
sg35
F22.351944444444445
sg36
F49889.539999999994
sg37
I00
sg38
I00
sg39
I00
sg40
I9223372036854775807
sg41
S'green'
p409
sg43
F-0.0012627651432512031
sg44
F49.459584297755335
sg45
F0
sg46
F49888.896264000003
sg47
g228
sS'a'
F0
sg49
F1
sg50
F8.6396310286969982
sg51
F0
sg52
F0
sg53
I00
sg54
F122.63140320075763
sg55
I00
sg56
F0
sg57
F0
sg58
S'Epping'
p410
sg60
S'MAIN21'
p411
sg62
(lp412
S'49.779622078'
p413
aS'LYS'
p414
aS'Leytonstone'
p415
asg67
I00
sg68
I00
sg69
F0
sg70
F160.934
sg71
I64
sg72
S'Epping'
p416
sg74
F0
sg75
F0
sS'm'
F249750
sg76
I0
sg77
(lp417
S'49.88954'
p418
aS'96.5604'
p419
asg81
F17.881555555555554
sg82
F64.373599999999996
sg83
F49779.622078
sg84
F0
sS'x'
F49459.584297755333
sg85
(lp420
sg99
F64.373599999999996
sg100
(lp421
S'49.888896264'
p422
aS'LYS+100'
p423
aS'1'
asg104
F1343729.1999903796
sba(i__main__
Tr
p424
(dp425
g3
F12999765.074487766
sg4
g5
sg8
I37
sg9
F25899.752356000001
sg10
F1
sg11
F0
sg12
I9223372036854775807
sg13
F9180100
sg14
I9223372036854775807
sg15
I00
sg16
F0
sg17
S'sig:Epping:42500'
p426
sg19
F96.560400000000001
sg20
I0
sg21
I9223372036854775807
sg22
F40.233499999999999
sg23
I8
sg24
I0
sg25
I10
sg26
F45908.779999999999
sS'v'
F0
sg27
I930
sg28
I01
sg29
F-1
sg30
F0
sg31
g32
sg35
F26.822333333333333
sg36
F73707.772000000012
sg37
I00
sg38
I00
sg39
I01
sg40
I9223372036854775807
sg41
S'green'
p427
sg43
F-0.0033322651700539419
sg44
F69.130326489034971
sg45
F405.36491613583757
sg46
F69239.600424000004
sg47
g48
sS'a'
F0
sg49
F1
sg50
F0
sg51
F0
sg52
F0
sg53
I00
sg54
F405.36491613583757
sg55
I00
sg56
F0
sg57
F0
sg58
S'Epping'
p428
sg60
S'BRCH1'
p429
sg62
(lp430
S'74.031732142'
p431
aS'EPP'
p432
aS'Epping'
p433
asg67
I00
sg68
I00
sg69
F0
sg70
F160.934
sg71
I87
sg72
S'Epping'
p434
sg74
F0
sg75
F0
sS'm'
F249750
sg76
I0
sg77
g78
sg81
F11.175972222222223
sg82
F96.560400000000001
sg83
F74031.732141999993
sg84
F0
sS'x'
F69130.326489034967
sg85
(lp435
sg99
F96.560400000000001
sg100
(lp436
S'69.239600424'
p437
aS'THB+100'
p438
aS'1'
asg104
F1347505.6099900564
sba(i__main__
Tr
p439
(dp440
g3
F12902407.857030405
sg4
g138
sg8
I33
sg9
F25899.752356000001
sg10
F1
sg11
F0
sg12
I9223372036854775807
sg13
F9180100
sg14
I9223372036854775807
sg15
I00
sg16
F58.094380626198792
sg17
S'sig:WestRuislip:GRF+100'
p441
sg19
F96.560400000000001
sg20
I0
sg21
I9223372036854775807
sg22
F64.373599999999996
sg23
I8
sg24
I0
sg25
I11
sg26
F0
sS'v'
F11.307575860664521
sg27
I930
sg28
I00
sg29
F-1
sg30
F40.707273098392278
sg31
g142
sg35
F26.822333333333333
sg36
F72903.101999999999
sg37
I00
sg38
I01
sg39
I00
sg40
I9223372036854775807
sg41
S'green'
p442
sg43
F-0.0046920602768905006
sg44
F63.381811435784378
sg45
F272.51422933501681
sg124
F1774.1500000000001
sg46
F63408.961603999996
sg47
g48
sS'a'
F0.4743730526456868
sg49
F1
sg50
F1361257.8201171483
sg51
F0
sg52
F0
sg53
I00
sg54
F272.51422933501681
sg55
I00
sg56
F0
sg57
F0.4743730526456868
sg58
S'WestRuislip'
p443
sg60
S'BRCH2'
p444
sg62
(lp445
S'66.342466556'
p446
aS'NHO'
p447
aS'Northolt'
p448
asg67
I00
sg68
I00
sg69
F0
sg70
F160.934
sg71
I84
sg72
S'WestRuislip'
p449
sg74
F0
sg75
F0
sS'm'
F249750
sg76
I0
sg77
g253
sg81
F17.881555555555554
sg82
F96.560400000000001
sg83
F66342.466555999999
sg84
F0
sS'x'
F63381.811435784381
sg85
(lp450
sg99
F96.560400000000001
sg100
(lp451
S'63.408961604'
p452
aS'GRF+100'
p453
aS'1'
asg104
F1350846.4199901065
sba(i__main__
Tr
p454
(dp455
g3
F13011809.786757393
sg4
g5
sg8
I9
sg9
F25899.752356000001
sg10
F1
sg11
F0
sg12
I9223372036854775807
sg13
F9180100
sg14
I9223372036854775807
sg15
I00
sg16
F104.12576667605137
sg17
S'sig:Epping:NAC+100'
p456
sg19
F88.5137
sg20
I0
sg21
I9223372036854775807
sg22
F40.233499999999999
sg23
I9
sg24
I-1
sg25
I3
sg26
F0
sS'v'
F15.136495407830765
sg27
I930
sg28
I00
sg29
F-1
sg30
F54.491383468190755
sg31
g32
sg35
F24.587138888888887
sg36
F22530.760000000002
sg37
I00
sg38
I00
sg39
I00
sg40
I9223372036854775807
sg41
S'green'
p457
sg43
F-0.0032235107720724483
sg44
F19.657764469941934
sg45
F327.01707520202007
sg46
F20680.019
sg47
g48
sS'a'
F0.24317400637970665
sg49
F1
sg50
F935064.88912919455
sg51
F0
sg52
F0
sg53
I00
sg54
F327.01707520202007
sg55
I00
sg56
F0
sg57
F0.24317400637970665
sg58
S'Epping'
p458
sg60
S'BRCH3'
p459
sg62
(lp460
S'21.518967942'
p461
aS'EAC'
p462
aS'East-Acton'
p463
asg67
I00
sg68
I00
sg69
F0
sg70
F160.934
sg71
I24
sg72
S''
sg74
F0
sg75
F0
sS'm'
F249750
sg76
I0
sg77
(lp464
S'22.53076'
p465
aS'40.2335'
p466
asg81
F11.175972222222223
sg82
F88.5137
sg83
F21518.967941999999
sg84
F0
sS'x'
F19657.764469941936
sg85
(lp467
sg99
F88.5137
sg100
(lp468
S'20.680019'
p469
aS'12850'
p470
aS'1'
asg104
F1351384.8699900913
sba(i__main__
Tr
p471
(dp472
g3
F13115637.756047655
sg4
g138
sg8
I5
sg9
F25899.752356000001
sg10
F1
sg11
F0
sg12
I9223372036854775807
sg13
F9180100
sg14
I9223372036854775807
sg15
I00
sg16
F59.036475694375085
sg17
S'sig:WestRuislip:10800'
p473
sg19
F96.560400000000001
sg20
I0
sg21
I9223372036854775807
sg22
F72.420299999999997
sg23
I9
sg24
I-1
sg25
I1
sg26
F0
sS'v'
F11.391001503866228
sg27
I930
sg28
I00
sg29
F-1
sg30
F41.007605413918419
sg31
g142
sg35
F26.822333333333333
sg36
F24140.099999999999
sg37
I00
sg38
I00
sg39
I00
sg40
I9223372036854775807
sg41
S'green'
p474
sg43
F9.6639545315482583e-05
sg44
F17.9980416188784
sg45
F214.60495560132574
sg46
F18166.229919999998
sg47
g48
sS'a'
F-1.1000000000000001
sg49
F1
sg50
F0
sg51
F0
sg52
F0
sg53
I00
sg54
F214.60495560132574
sg55
I01
sg56
F0
sg57
F-1.1000000000000001
sg58
S'WestRuislip'
p475
sg60
S'BRCH4'
p476
sg62
(lp477
S'18.056955734'
p478
aS'WOO'
p479
aS'Woodford'
p480
asg67
I00
sg68
I00
sg69
F0
sg70
F160.934
sg71
I24
sg72
S''
sg74
F0
sg75
F0
sS'm'
F249750
sg76
I0
sg77
g152
sg81
F20.11675
sg82
F96.560400000000001
sg83
F18056.955733999999
sg84
F0
sS'x'
F17998.0416188784
sg85
(lp481
sg99
F96.560400000000001
sg100
(lp482
S'18.16622992'
p483
aS'WOO+100'
p484
aS'1'
asg104
F1326093.4499908693
sbasg99
F96.560400000000001
sg100
(lp485
S'53.10822'
p486
aS'33000'
p487
aS'1'
asg104
F1342735.7899901976
sb.