(i__main__
Tr
p1
(dp2
S'mechWear'
p3
F16620257.178727755
sS'nextGRD'
p4
(lp5
S'0.0'
p6
aS'0.0'
p7
asS'STAcnt'
p8
I3
sS'maxSquareSpeed'
p9
F25899.752356000001
sS'consumptionCutOff'
p10
F1
sS'grade'
p11
F0
sS'nGRDx'
p12
I9223372036854775807
sS'admissionWear'
p13
F11700100
sS'transitionGRDx'
p14
I9223372036854775807
sS'coasting'
p15
I00
sS'BDzero'
p16
F72.037998767293118
sS'redisSIG'
p17
S'sig:WestRuislip:7700'
p18
sS'maxTIV'
p19
F96.560400000000001
sS'CRVcnt'
p20
I0
sS'nCRVx'
p21
I9223372036854775807
sS'nTIVvl'
p22
F72.420299999999997
sS'trip'
p23
I11
sS'pathCnt'
p24
I-1
sS'TIVcnt'
p25
I1
sS'waitSta'
p26
F0
sS'v'
F12.583526860247972
sS'pax'
p27
I930
sS'startingPhase'
p28
I00
sS'advTIV'
p29
F-1
sS'vK'
p30
F45.3006966968927
sS'nextCRV'
p31
(lp32
S'0.0'
p33
aS'0.0'
p34
asS'cv'
p35
F26.822333333333333
sS'nTIVx'
p36
F24140.099999999999
sS'sigBrake'
p37
I00
sS'sigSpotted'
p38
I00
sS'inSta'
p39
I00
sS'transitionCRVx'
p40
I9223372036854775807
sS'advSIGcol'
p41
S'green'
p42
sS'aGaussFactor'
p43
F-0.0025650715535618716
sS'PK'
p44
F12.901314936705971
sS'deltaBDtiv'
p45
F214.60495560132574
sS'nSIGx'
p46
F13082.646728
sS'nTIVtype'
p47
S'DEC'
p48
sS'a'
F-1.1000000000000001
sS'ratioGRD'
p49
F1
sS'power'
p50
F0
sS'gradient'
p51
F0
sS'BDsta'
p52
F0
sS'initSwitchSeg'
p53
I00
sS'BDtiv'
p54
F214.60495560132574
sS'staBrake'
p55
I01
sS'waitReact'
p56
F0
sS'aFull'
p57
F-1.1000000000000001
sS'segment'
p58
S'WestRuislip'
p59
sS'name'
p60
S'MAIN1'
p61
sS'nextSTA'
p62
(lp63
S'12.9733081684'
p64
aS'LOU'
p65
aS'Loughton'
p66
asS'react'
p67
I00
sS'atSig'
p68
I00
sS'deltaBDsta'
p69
F0
sS'tgtVk'
p70
F160.934
sS'SIGcnt'
p71
I18
sS'pathBranch'
p72
S''
sS'oldGradient'
p73
F0
sS'critVk'
p74
F0
sS'm'
F249750
sS'GRDcnt'
p75
I0
sS'nextTIV'
p76
(lp77
S'24.1401'
p78
aS'72.4203'
p79
asS'nv'
p80
F20.11675
sS'maxVk'
p81
F96.560400000000001
sS'nSTAx'
p82
F12973.308168399999
sS'DBrt'
p83
F0
sS'x'
F12901.31493670597
sS'trs'
p84
(lp85
(i__main__
Tr
p86
(dp87
g3
F16604764.288624825
sg4
g5
sg8
I5
sg9
F25899.752356000001
sg10
F1
sg11
F0
sg12
I9223372036854775807
sg13
F11700100
sg14
I9223372036854775807
sg15
I00
sg16
F174.98609788805351
sg17
S'sig:WestRuislip:10100'
p88
sg19
F96.560400000000001
sg20
I0
sg21
I9223372036854775807
sg22
F72.420299999999997
sg23
I11
sg24
I-1
sg25
I1
sg26
F0
sS'v'
F19.620848751506809
sg27
I930
sg28
I00
sg29
F-1
sg30
F70.635055505424518
sg31
g32
sg35
F26.822333333333333
sg36
F24140.099999999999
sg37
I00
sg38
I00
sg39
I00
sg40
I9223372036854775807
sg41
S'green'
p89
sg43
F0.0041579204226485532
sg44
F16.3903785779925
sg45
F214.60495560132574
sg46
F17380.871999999999
sg47
g48
sS'a'
F0.042253118235520713
sg49
F1
sg50
F211075.68780578824
sg51
F0
sg52
F0
sg53
I00
sg54
F214.60495560132574
sg55
I00
sg56
F0
sg57
F0.042253118235520713
sg58
S'WestRuislip'
p90
sg60
S'MAIN14'
p91
sg62
(lp92
S'18.056955734'
p93
aS'WOO'
p94
aS'Woodford'
p95
asg67
I00
sg68
I00
sg69
F0
sg70
F160.934
sg71
I23
sg72
S''
sg73
F0
sg74
F0
sS'm'
F249750
sg75
I0
sg76
g77
sg80
F20.11675
sg81
F96.560400000000001
sg82
F18056.955733999999
sg83
F0
sS'x'
F16390.378577992502
sg84
(lp96
sS'cTIVvl'
p97
F96.560400000000001
sS'nextSIG'
p98
(lp99
S'17.380872'
p100
aS'10800'
p101
aS'1'
asS'brakeWear'
p102
F1695406.0199825673
sba(i__main__
Tr
p103
(dp104
g3
F16615867.321629642
sg4
g5
sg8
I7
sg9
F25899.752356000001
sg10
F1
sg11
F0
sg12
I9223372036854775807
sg13
F11700100
sg14
I9223372036854775807
sg15
I00
sg16
F0
sg17
S'sig:WestRuislip:12300'
p105
sg19
F96.560400000000001
sg20
I0
sg21
I9223372036854775807
sg22
F72.420299999999997
sg23
I11
sg24
I-1
sg25
I1
sg26
F58508
sS'v'
F0
sg27
I930
sg28
I01
sg29
F-1
sg30
F0
sg31
g32
sg35
F26.822333333333333
sg36
F24140.099999999999
sg37
I00
sg38
I00
sg39
I01
sg40
I9223372036854775807
sg41
S'green'
p106
sg43
F-0.00075727499948864577
sg44
F20.516832715716401
sg45
F214.60495560132574
sg46
F20662.477193999999
sg47
g48
sS'a'
F0
sg49
F1
sg50
F0
sg51
F0
sg52
F0
sg53
I00
sg54
F214.60495560132574
sg55
I00
sg56
F0
sg57
F0
sg58
S'WestRuislip'
p107
sg60
S'MAIN2'
p108
sg62
(lp109
S'22.430015316'
p110
aS'SNR'
p111
aS'Snaresbrook'
p112
asg67
I00
sg68
I00
sg69
F0
sg70
F160.934
sg71
I27
sg72
S''
sg73
F0
sg74
F0
sS'm'
F249750
sg75
I0
sg76
g77
sg80
F20.11675
sg81
F96.560400000000001
sg82
F22430.015315999997
sg83
F0
sS'x'
F20516.832715716402
sg84
(lp113
sg97
F96.560400000000001
sg98
(lp114
S'20.662477194'
p115
aS'SWO+100'
p116
aS'1'
asg102
F1700403.3199823741
sba(i__main__
Tr
p117
(dp118
g3
F16585220.608189331
sg4
g5
sg8
I8
sg9
F25899.752356000001
sg10
F1
sg11
F0
sg12
I9223372036854775807
sg13
F11700100
sg14
I9223372036854775807
sg15
I00
sg16
F147.56828714352631
sg17
S'sig:WestRuislip:15000'
p119
sg19
F72.420299999999997
sg20
I0
sg21
I9223372036854775807
sg22
F80.466999999999999
sg23
I11
sg24
I-1
sg25
I2
sg26
F0
sS'v'
F18.012552939087449
sg27
I930
sg28
I00
sg29
F-1
sg30
F64.845190580714814
sg31
g32
sg35
F26.822333333333333
sg36
F27358.779999999999
sg37
I00
sg38
I00
sg39
I00
sg40
I9223372036854775807
sg41
S'green'
p120
sg43
F-0.0010771829738458459
sg44
F24.560103754198689
sg45
F0
sS'sigPoll'
p121
F245.72999999999999
sg46
F24816.988404
sg47
S'INC'
p122
sS'a'
F-1.1000000000000001
sg49
F1
sg50
F0
sg51
F0
sg52
F0
sg53
I00
sg54
F214.60495560132574
sg55
I01
sg56
F0
sg57
F-1.1000000000000001
sg58
S'WestRuislip'
p123
sg60
S'MAIN15'
p124
sg62
(lp125
S'24.707553284'
p126
aS'LYS'
p127
aS'Leytonstone'
p128
asg67
I00
sg68
I00
sg69
F0
sg70
F160.934
sg71
I32
sg72
S''
sg73
F0
sg74
F0
sS'm'
F249750
sg75
I0
sg76
(lp129
S'27.35878'
p130
aS'80.467'
p131
asg80
F20.11675
sg81
F72.420299999999997
sg82
F24707.553283999998
sg83
F0
sS'x'
F24560.103754198688
sg84
(lp132
sg97
F72.420299999999997
sg98
(lp133
S'24.816988404'
p134
aS'LYS+100'
p135
aS'1'
asg102
F1693424.0399825301
sba(i__main__
Tr
p136
(dp137
g3
F16664047.817237234
sg4
g5
sg8
I14
sg9
F25899.752356000001
sg10
F1
sg11
F0
sg12
I9223372036854775807
sg13
F11700100
sg14
I9223372036854775807
sg15
I01
sg16
F20.412710422389559
sg17
S'sig:WestRuislip:LIV+100'
p138
sg19
F24.1401
sg20
I0
sg21
I9223372036854775807
sg22
F48.280200000000001
sg23
I11
sg24
I-1
sg25
I5
sg26
F0
sS'v'
F6.7013403830321163
sg27
I930
sg28
I00
sg29
F-1
sg30
F24.12482537891562
sg31
g32
sg35
F17.881555555555554
sg36
F39106.962
sg37
I00
sg38
I00
sg39
I00
sg40
I9223372036854775807
sg41
S'green'
p139
sg43
F2.5851707230077121e-05
sg44
F38.468396508533154
sg45
F0
sg46
F38938.142233999999
sg47
g122
sS'a'
F0
sg49
F1
sg50
F1.8683085574252887
sg51
F0
sg52
F0
sg53
I00
sg54
F187.35353266782403
sg55
I00
sg56
F0
sg57
F0
sg58
S'WestRuislip'
p140
sg60
S'MAIN3'
p141
sg62
(lp142
S'38.828868048'
p143
aS'BNK'
p144
aS'Bank'
p145
aS'X'
asg67
I00
sg68
I00
sg69
F0
sg70
F160.934
sg71
I50
sg72
S''
sg73
F0
sg74
F0
sS'm'
F249750
sg75
I0
sg76
(lp146
S'39.106962'
p147
aS'48.2802'
p148
asg80
F6.7055833333333332
sg81
F24.1401
sg82
F38828.868047999997
sg83
F0
sS'x'
F38468.396508533151
sg84
(lp149
sg97
F24.1401
sg98
(lp150
S'38.938142234'
p151
aS'BNK+100'
p152
aS'1'
asg102
F1706072.1699822033
sba(i__main__
Tr
p153
(dp154
g3
F16643183.913699709
sg4
g5
sg8
I19
sg9
F25899.752356000001
sg10
F1
sg11
F0
sg12
I9223372036854775807
sg13
F11700100
sg14
I9223372036854775807
sg15
I01
sg16
F145.05541350688839
sg17
S'sig:WestRuislip:TTT+100'
p155
sg19
F64.373599999999996
sg20
I0
sg21
I9223372036854775807
sg22
F40.233499999999999
sg23
I11
sg24
I-1
sg25
I7
sg26
F0
sS'v'
F17.863983590318103
sg27
I930
sg28
I00
sg29
F-1
sg30
F64.310340925145169
sg31
g32
sg35
F17.881555555555554
sg36
F49889.539999999994
sg37
I00
sg38
I00
sg39
I00
sg40
I9223372036854775807
sg41
S'green'
p156
sg43
F-0.0035367920446728509
sg44
F43.365114338243295
sg45
F132.85068680082065
sg46
F43639.185308
sg47
g48
sS'a'
F0
sg49
F1
sg50
F8.6396310286969982
sg51
F0
sg52
F0
sg53
I00
sg54
F132.85068680082065
sg55
I00
sg56
F0
sg57
F0
sg58
S'WestRuislip'
p157
sg60
S'BRCH7'
p158
sg62
(lp159
S'43.529911122'
p160
aS'OXF'
p161
aS'Oxford-Circus'
p162
aS'X'
asg67
I00
sg68
I00
sg69
F0
sg70
F160.934
sg71
I57
sg72
S''
sg73
F0
sg74
F0
sS'm'
F249750
sg75
I0
sg76
(lp163
S'49.88954'
p164
aS'40.2335'
p165
asg80
F11.175972222222223
sg81
F64.373599999999996
sg82
F43529.911122000005
sg83
F0
sS'x'
F43365.114338243293
sg84
(lp166
sg97
F64.373599999999996
sg98
(lp167
S'43.639185308'
p168
aS'OXF+100'
p169
aS'1'
asg102
F1698714.1599825735
sba(i__main__
Tr
p170
(dp171
g3
F16647588.074548719
sg4
g5
sg8
I29
sg9
F25899.752356000001
sg10
F1
sg11
F0
sg12
I9223372036854775807
sg13
F11700100
sg14
I9223372036854775807
sg15
I00
sg16
F127.94898589238775
sg17
S'sig:WestRuislip:EAC+100'
p172
sg19
F80.466999999999999
sg20
I0
sg21
I9223372036854775807
sg22
F72.420299999999997
sg23
I11
sg24
I-1
sg25
I9
sg26
F0
sS'v'
F16.778419720036911
sg27
I930
sg28
I00
sg29
F-1
sg30
F60.402310992132882
sg31
g32
sg35
F22.351944444444445
sg36
F53912.889999999999
sg37
I00
sg38
I00
sg39
I00
sg40
I9223372036854775807
sg41
S'green'
p173
sg43
F0.00071522588562081138
sg44
F53.333577563937787
sg45
F64.722129467066509
sg46
F53912.889999999999
sg47
g48
sS'a'
F0.16449710648230417
sg49
F1
sg50
F701650.87364138721
sg51
F0
sg52
F0
sg53
I00
sg54
F64.722129467066509
sg55
I00
sg56
F0
sg57
F0.16449710648230417
sg58
S'WestRuislip'
p174
sg60
S'BRCH8'
p175
sg62
(lp176
S'55.063729034'
p177
aS'NAC'
p178
aS'North-Acton'
p179
asg67
I00
sg68
I00
sg69
F0
sg70
F160.934
sg71
I72
sg72
S''
sg73
F0
sg74
F0
sS'm'
F249750
sg75
I0
sg76
(lp180
S'53.91289'
p181
aS'72.4203'
p182
asg80
F20.11675
sg81
F80.466999999999999
sg82
F55063.729033999996
sg83
F0
sS'x'
F53333.57756393779
sg84
(lp183
sg97
F80.466999999999999
sg98
(lp184
S'53.91289'
p185
aS'33500'
p186
aS'1'
asg102
F1705193.7099822497
sba(i__main__
Tr
p187
(dp188
g3
F16644612.488692602
sg4
g5
sg8
I32
sg9
F25899.752356000001
sg10
F1
sg11
F0
sg12
I9223372036854775807
sg13
F11700100
sg14
I9223372036854775807
sg15
I00
sg16
F155.77983830899282
sg17
S'sig:WestRuislip:PVL+100'
p189
sg19
F96.560400000000001
sg20
I0
sg21
I9223372036854775807
sg22
F64.373599999999996
sg23
I11
sg24
I0
sg25
I11
sg26
F0
sS'v'
F18.513022487165397
sg27
I930
sg28
I00
sg29
F-1
sg30
F66.646880953795431
sg31
g32
sg35
F26.822333333333333
sg36
F72903.101999999999
sg37
I00
sg38
I00
sg39
I00
sg40
I9223372036854775807
sg41
S'green'
p190
sg43
F-0.00077951867025295545
sg44
F61.384224637316635
sg45
F272.51422933501681
sg46
F61557.254999999997
sg47
g48
sS'a'
F0.088356861729004491
sg49
F1
sg50
F416206.63469759002
sg51
F0
sg52
F0
sg53
I00
sg54
F272.51422933501681
sg55
I00
sg56
F0
sg57
F0.088356861729004491
sg58
S'WestRuislip'
p191
sg60
S'MAIN7'
p192
sg62
(lp193
S'63.299526484'
p194
aS'GRF'
p195
aS'Greenford'
p196
asg67
I00
sg68
I00
sg69
F0
sg70
F160.934
sg71
I82
sg72
S'WestRuislip'
p197
sg73
F0
sg74
F0
sS'm'
F249750
sg75
I0
sg76
(lp198
S'72.903102'
p199
aS'64.3736'
p200
asg80
F17.881555555555554
sg81
F96.560400000000001
sg82
F63299.526483999995
sg83
F0
sS'x'
F61384.224637316634
sg84
(lp201
sg97
F96.560400000000001
sg98
(lp202
S'61.557255'
p203
aS'38250'
p204
aS'1'
asg102
F1705309.8699822736
sba(i__main__
Tr
p205
(dp206
g3
F16671257.259449599
sg4
g5
sg8
I36
sg9
F25899.752356000001
sg10
F1
sg11
F0
sg12
I9223372036854775807
sg13
F11700100
sg14
I9223372036854775807
sg15
I00
sg16
F0
sg17
S'sig:WestRuislip:WRL-200'
p207
sg19
F32.186799999999998
sg20
I0
sg21
I9223372036854775807
sg22
F32.186799999999998
sg23
I11
sg24
I0
sg25
I12
sg26
F58509.724999999999
sS'v'
F0
sg27
I930
sg28
I01
sg29
F-1
sg30
F0
sg31
g32
sg35
F17.881555555555554
sg36
I9223372036854775807
sg37
I00
sg38
I00
sg39
I01
sg40
I9223372036854775807
sg41
S'green'
p208
sg43
F-0.0018815123562214001
sg44
F74.19572445999006
sg45
F163.50853760101006
sg46
F74304.998074000003
sg47
g48
sS'a'
F0
sg49
F1
sg50
F0
sg51
F0
sg52
F0
sg53
I00
sg54
F163.50853760101006
sg55
I00
sg56
F0
sg57
F0
sg58
S'WestRuislip'
p209
sg60
S'MAIN8'
p210
sg62
(lp211
S'74.195723888'
p212
aS'WRL'
p213
aS'West-Ruislip'
p214
asg67
I00
sg68
I00
sg69
F0
sg70
F160.934
sg71
I98
sg72
S'WestRuislip'
p215
sg73
F0
sg74
F0
sS'm'
F249750
sg75
I0
sg76
(lp216
S'74.02964'
p217
aS'32.1868'
p218
asg80
F8.940777777777777
sg81
F32.186799999999998
sg82
I9223372036854775807
sg83
F0
sS'x'
F74195.724459990059
sg84
(lp219
sg97
F64.373599999999996
sg98
(lp220
S'74.304998074'
p221
aS'WRL+100'
p222
aS'3'
asg102
F1705756.3599823304
sba(i__main__
Tr
p223
(dp224
g3
F16635212.814396176
sg4
(lp225
S'0.0'
p226
aS'0.0'
p227
asg8
I4
sg9
F25899.752356000001
sg10
F1
sg11
F0
sg12
I9223372036854775807
sg13
F11700100
sg14
I9223372036854775807
sg15
I00
sg16
F193.95246986808075
sg17
S'sig:Epping:4750'
p228
sg19
F96.560400000000001
sg20
I0
sg21
I9223372036854775807
sg22
F72.420299999999997
sg23
I12
sg24
I-1
sg25
I1
sg26
F0
sS'v'
F20.656609407261005
sg27
I930
sg28
I00
sg29
F-1
sg30
F74.363793866139616
sg31
(lp229
S'0.0'
p230
aS'0.0'
p231
asg35
F26.822333333333333
sg36
F16093.4
sg37
I00
sg38
I00
sg39
I00
sg40
I9223372036854775807
sg41
S'green'
p232
sg43
F-0.0018354525315002169
sg44
F7.9484128391651669
sg45
F214.60495560132574
sg46
F8272.3133746000003
sg47
g48
sS'a'
F0.00037999638859824685
sg49
F1
sg50
F2011.1952745476449
sg51
F0
sg52
F0
sg53
I00
sg54
F214.60495560132574
sg55
I00
sg56
F0
sg57
F0.00037999638859824685
sg58
S'Epping'
p233
sg60
S'MAIN9'
p234
sg62
(lp235
S'8.1629909084'
p236
aS'NHO'
p237
aS'Northolt'
p238
asg67
I00
sg68
I00
sg69
F0
sg70
F160.934
sg71
I11
sg72
S''
sg73
F0
sg74
F0
sS'm'
F249750
sg75
I0
sg76
(lp239
S'16.0934'
p240
aS'72.4203'
p241
asg80
F20.11675
sg81
F96.560400000000001
sg82
F8162.9909083999992
sg83
F0
sS'x'
F7948.4128391651666
sg84
(lp242
sg97
F96.560400000000001
sg98
(lp243
S'8.2723133746'
p244
aS'NHO+100'
p245
aS'1'
asg102
F1705676.4999823854
sba(i__main__
Tr
p246
(dp247
g3
F16609583.377579166
sg4
g225
sg8
I8
sg9
F25899.752356000001
sg10
F1
sg11
F0
sg12
I9223372036854775807
sg13
F11700100
sg14
I9223372036854775807
sg15
I00
sg16
F163.41863822756699
sg17
S'sig:Epping:HLA+100'
p248
sg19
F72.420299999999997
sg20
I0
sg21
I9223372036854775807
sg22
F88.5137
sg23
I11
sg24
I-1
sg25
I2
sg26
F0
sS'v'
F18.961386635771692
sg27
I930
sg28
I00
sg29
F-1
sg30
F68.260991888778094
sg31
g229
sg35
F26.822333333333333
sg36
F19312.080000000002
sg37
I00
sg38
I00
sg39
I00
sg40
I9223372036854775807
sg41
S'green'
p249
sg43
F0.0012903800027429734
sg44
F17.250832367076711
sg45
F0
sg46
F17522.654854
sg47
g122
sS'a'
F0.069505314150982267
sg49
F1
sg50
F335417.28185298346
sg51
F0
sg52
F0
sg53
I00
sg54
F214.60495560132574
sg55
I00
sg56
F0
sg57
F0.069505314150982267
sg58
S'Epping'
p250
sg60
S'MAIN11'
p251
sg62
(lp252
S'19.423607262'
p253
aS'NAC'
p254
aS'North-Acton'
p255
asg67
I00
sg68
I00
sg69
F0
sg70
F160.934
sg71
I20
sg72
S''
sg73
F0
sg74
F0
sS'm'
F249750
sg75
I0
sg76
(lp256
S'19.31208'
p257
aS'88.5137'
p258
asg80
F20.11675
sg81
F72.420299999999997
sg82
F19423.607262000001
sg83
F0
sS'x'
F17250.832367076709
sg84
(lp259
sg97
F72.420299999999997
sg98
(lp260
S'17.522654854'
p261
aS'PreZorg'
p262
aS'6'
asg102
F1709108.0599823147
sba(i__main__
Tr
p263
(dp264
g3
F16595542.562562145
sg4
g225
sg8
I11
sg9
F25899.752356000001
sg10
F1
sg11
F0
sg12
I9223372036854775807
sg13
F11700100
sg14
I9223372036854775807
sg15
I00
sg16
F106.84760043207555
sg17
S'sig:Epping:WCI+100'
p265
sg19
F64.373599999999996
sg20
I0
sg21
I9223372036854775807
sg22
F24.1401
sg23
I11
sg24
I-1
sg25
I5
sg26
F0
sS'v'
F15.332987135067581
sg27
I930
sg28
I00
sg29
F-1
sg30
F55.198753686243293
sg31
g229
sg35
F17.881555555555554
sg36
F35003.145000000004
sg37
I00
sg38
I00
sg39
I00
sg40
I9223372036854775807
sg41
S'green'
p266
sg43
F0.003218626503492846
sg44
F24.146936370962383
sg45
F187.35353266782403
sg46
F24301.034
sg47
g48
sS'a'
F0.23331979750433551
sg49
F1
sg50
F908891.89153528411
sg51
F0
sg52
F0
sg53
I00
sg54
F187.35353266782403
sg55
I00
sg56
F0
sg57
F0.23331979750433551
sg58
S'Epping'
p267
sg60
S'MAIN18'
p268
sg62
(lp269
S'24.92626259'
p270
aS'SBU'
p271
aS'Shepherds-Bush'
p272
asg67
I00
sg68
I00
sg69
F0
sg70
F160.934
sg71
I29
sg72
S''
sg73
F0
sg74
F0
sS'm'
F249750
sg75
I0
sg76
(lp273
S'35.003145'
p274
aS'24.1401'
p275
asg80
F6.7055833333333332
sg81
F64.373599999999996
sg82
F24926.262590000002
sg83
F0
sS'x'
F24146.936370962383
sg84
(lp276
sg97
F64.373599999999996
sg98
(lp277
S'24.301034'
p278
aS'15100'
p279
aS'1'
asg102
F1713041.7699820369
sba(i__main__
Tr
p280
(dp281
g3
F16571537.045801336
sg4
g225
sg8
I15
sg9
F25899.752356000001
sg10
F1
sg11
F0
sg12
I9223372036854775807
sg13
F11700100
sg14
I9223372036854775807
sg15
I01
sg16
F145.05541350688839
sg17
S'sig:Epping:QUW+100'
p282
sg19
F64.373599999999996
sg20
I0
sg21
I9223372036854775807
sg22
F24.1401
sg23
I11
sg24
I-1
sg25
I5
sg26
F0
sS'v'
F17.863983590318103
sg27
I930
sg28
I00
sg29
F-1
sg30
F64.310340925145169
sg31
g229
sg35
F17.881555555555554
sg36
F35003.145000000004
sg37
I00
sg38
I00
sg39
I00
sg40
I9223372036854775807
sg41
S'green'
p283
sg43
F0.00010424735971654734
sg44
F28.030243725087431
sg45
F187.35353266782403
sg46
F28424.645882000001
sg47
g48
sS'a'
F0
sg49
F1
sg50
F8.6396310286969982
sg51
F0
sg52
F0
sg53
I00
sg54
F187.35353266782403
sg55
I00
sg56
F0
sg57
F0
sg58
S'Epping'
p284
sg60
S'MAIN12'
p285
sg62
(lp286
S'28.315371696'
p287
aS'LAN'
p288
aS'Lancaster-Gate'
p289
asg67
I00
sg68
I00
sg69
F0
sg70
F160.934
sg71
I35
sg72
S''
sg73
F0
sg74
F0
sS'm'
F249750
sg75
I0
sg76
g273
sg80
F6.7055833333333332
sg81
F64.373599999999996
sg82
F28315.371695999998
sg83
F0
sS'x'
F28030.243725087432
sg84
(lp290
sg97
F64.373599999999996
sg98
(lp291
S'28.424645882'
p292
aS'LAN+100'
p293
aS'1'
asg102
F1719602.3899819595
sba(i__main__
Tr
p294
(dp295
g3
F16499080.849000815
sg4
g225
sg8
I23
sg9
F25899.752356000001
sg10
F1
sg11
F0
sg12
I9223372036854775807
sg13
F11700100
sg14
I9223372036854775807
sg15
I01
sg16
F20.414470984840591
sg17
S'sig:Epping:SPA+100'
p296
sg19
F24.1401
sg20
I0
sg21
I9223372036854775807
sg22
F48.280200000000001
sg23
I11
sg24
I-1
sg25
I6
sg26
F0
sS'v'
F6.7016293665532789
sg27
I930
sg28
I00
sg29
F-1
sg30
F24.125865719591804
sg31
g229
sg35
F17.881555555555554
sg36
F35968.749000000003
sg37
I00
sg38
I00
sg39
I00
sg40
I9223372036854775807
sg41
S'green'
p297
sg43
F-0.00072346716441892584
sg44
F35.34000237368533
sg45
F0
sg46
F35804.113517999998
sg47
g122
sS'a'
F0
sg49
F1
sg50
F1.8684085148268961
sg51
F0
sg52
F0
sg53
I00
sg54
F187.35353266782403
sg55
I00
sg56
F0
sg57
F0
sg58
S'Epping'
p298
sg60
S'MAIN13'
p299
sg62
(lp300
S'35.694839332'
p301
aS'BNK'
p302
aS'Bank'
p303
aS'X'
asg67
I00
sg68
I00
sg69
F0
sg70
F160.934
sg71
I46
sg72
S''
sg73
F0
sg74
F0
sS'm'
F249750
sg75
I0
sg76
(lp304
S'35.968749'
p305
aS'48.2802'
p306
asg80
F6.7055833333333332
sg81
F24.1401
sg82
F35694.839332000003
sg83
F0
sS'x'
F35340.002373685333
sg84
(lp307
sg97
F24.1401
sg98
(lp308
S'35.804113518'
p309
aS'BNK+100'
p310
aS'1'
asg102
F1728376.0999815562
sba(i__main__
Tr
p311
(dp312
g3
F16516990.277082847
sg4
g225
sg8
I29
sg9
F25899.752356000001
sg10
F1
sg11
F0
sg12
I9223372036854775807
sg13
F11700100
sg14
I9223372036854775807
sg15
I01
sg16
F145.05541350688839
sg17
S'sig:Epping:30100'
p313
sg19
F64.373599999999996
sg20
I0
sg21
I9223372036854775807
sg22
F96.560400000000001
sg23
I11
sg24
I0
sg25
I9
sg26
F0
sS'v'
F17.863983590318103
sg27
I930
sg28
I00
sg29
F-1
sg30
F64.310340925145169
sg31
g229
sg35
F22.351944444444445
sg36
F49889.539999999994
sg37
I00
sg38
I00
sg39
I00
sg40
I9223372036854775807
sg41
S'green'
p314
sg43
F0.0035546994789420251
sg44
F48.789774184311867
sg45
F0
sg46
F49888.896264000003
sg47
g122
sS'a'
F0
sg49
F1
sg50
F8.6396310286969982
sg51
F0
sg52
F0
sg53
I00
sg54
F122.63140320075763
sg55
I00
sg56
F0
sg57
F0
sg58
S'Epping'
p315
sg60
S'BRCH9'
p316
sg62
(lp317
S'49.779622078'
p318
aS'LYS'
p319
aS'Leytonstone'
p320
asg67
I00
sg68
I00
sg69
F0
sg70
F160.934
sg71
I64
sg72
S'Epping'
p321
sg73
F0
sg74
F0
sS'm'
F249750
sg75
I0
sg76
(lp322
S'49.88954'
p323
aS'96.5604'
p324
asg80
F17.881555555555554
sg81
F64.373599999999996
sg82
F49779.622078
sg83
F0
sS'x'
F48789.774184311864
sg84
(lp325
sg97
F64.373599999999996
sg98
(lp326
S'49.888896264'
p327
aS'LYS+100'
p328
aS'1'
asg102
F1724563.3899817404
sba(i__main__
Tr
p329
(dp330
g3
F16493504.796348723
sg4
g225
sg8
I31
sg9
F25899.752356000001
sg10
F1
sg11
F0
sg12
I9223372036854775807
sg13
F11700100
sg14
I9223372036854775807
sg15
I00
sg16
F92.622564321593529
sg17
S'sig:Epping:SNR+100'
p331
sg19
F96.560400000000001
sg20
I0
sg21
I9223372036854775807
sg22
F40.233499999999999
sg23
I11
sg24
I0
sg25
I10
sg26
F0
sS'v'
F14.276230667459746
sg27
I930
sg28
I00
sg29
F-1
sg30
F51.394430402855086
sg31
g229
sg35
F26.822333333333333
sg36
F73707.772000000012
sg37
I00
sg38
I00
sg39
I00
sg40
I9223372036854775807
sg41
S'green'
p332
sg43
F-0.0027468385448599958
sg44
F52.243640120088187
sg45
F405.36491613583757
sg46
F53108.220000000001
sg47
g48
sS'a'
F0.28804968402198028
sg49
F1
sg50
F1044333.5026943482
sg51
F0
sg52
F0
sg53
I00
sg54
F405.36491613583757
sg55
I00
sg56
F0
sg57
F0.28804968402198028
sg58
S'Epping'
p333
sg60
S'MAIN16'
p334
sg62
(lp335
S'53.988689914'
p336
aS'SWO'
p337
aS'South-Woodford'
p338
asg67
I00
sg68
I00
sg69
F0
sg70
F160.934
sg71
I68
sg72
S'Epping'
p339
sg73
F0
sg74
F0
sS'm'
F249750
sg75
I0
sg76
(lp340
S'73.707772'
p341
aS'40.2335'
p342
asg80
F11.175972222222223
sg81
F96.560400000000001
sg82
F53988.689913999995
sg83
F0
sS'x'
F52243.640120088188
sg84
(lp343
sg97
F96.560400000000001
sg98
(lp344
S'53.10822'
p345
aS'33000'
p346
aS'1'
asg102
F1706634.8199821596
sba(i__main__
Tr
p347
(dp348
g3
F16556428.299966983
sg4
g225
sg8
I32
sg9
F25899.752356000001
sg10
F1
sg11
F0
sg12
I9223372036854775807
sg13
F11700100
sg14
I9223372036854775807
sg15
I00
sg16
F184.41210466254319
sg17
S'sig:Epping:34700'
p349
sg19
F96.560400000000001
sg20
I0
sg21
I9223372036854775807
sg22
F40.233499999999999
sg23
I11
sg24
I0
sg25
I10
sg26
F0
sS'v'
F20.136660516131208
sg27
I930
sg28
I00
sg29
F-1
sg30
F72.491977858072346
sg31
g229
sg35
F26.822333333333333
sg36
F73707.772000000012
sg37
I00
sg38
I00
sg39
I00
sg40
I9223372036854775807
sg41
S'green'
p350
sg43
F-0.0004212165708776516
sg44
F56.264330656341585
sg45
F405.36491613583757
sg46
F56557.84029
sg47
g48
sS'a'
F-1.1000000000000001
sg49
F1
sg50
F16199.255875250823
sg51
F0
sg52
F0
sg53
I00
sg54
F405.36491613583757
sg55
I01
sg56
F0
sg57
F-1.1000000000000001
sg58
S'Epping'
p351
sg60
S'MAIN17'
p352
sg62
(lp353
S'56.448566104'
p354
aS'WOO'
p355
aS'Woodford'
p356
asg67
I00
sg68
I00
sg69
F0
sg70
F160.934
sg71
I72
sg72
S'Epping'
p357
sg73
F0
sg74
F0
sS'm'
F249750
sg75
I0
sg76
g340
sg80
F11.175972222222223
sg81
F96.560400000000001
sg82
F56448.566103999998
sg83
F0
sS'x'
F56264.330656341583
sg84
(lp358
sg97
F96.560400000000001
sg98
(lp359
S'56.55784029'
p360
aS'WOO+100'
p361
aS'1'
asg102
F1714173.1199820845
sba(i__main__
Tr
p362
(dp363
g3
F16574736.088113705
sg4
g225
sg8
I34
sg9
F25899.752356000001
sg10
F1
sg11
F0
sg12
I9223372036854775807
sg13
F11700100
sg14
I9223372036854775807
sg15
I00
sg16
F156.15725446511266
sg17
S'sig:Epping:37150'
p364
sg19
F96.560400000000001
sg20
I0
sg21
I9223372036854775807
sg22
F40.233499999999999
sg23
I11
sg24
I0
sg25
I10
sg26
F0
sS'v'
F18.5354298860059
sg27
I930
sg28
I00
sg29
F-1
sg30
F66.727547589621238
sg31
g229
sg35
F26.822333333333333
sg36
F73707.772000000012
sg37
I00
sg38
I01
sg39
I00
sg40
I9223372036854775807
sg41
S'green'
p365
sg43
F0.0006862433901144258
sg44
F59.694313812920925
sg45
F405.36491613583757
sg46
F59786.981
sg47
g48
sS'a'
F0.087407882611430857
sg49
F1
sg50
F412239.74605114642
sg51
F0
sg52
F0
sg53
I00
sg54
F405.36491613583757
sg55
I00
sg56
F0
sg57
F0.087407882611430857
sg58
S'Epping'
p366
sg60
S'BRCH6'
p367
sg62
(lp368
S'61.532149296'
p369
aS'LOU'
p370
aS'Loughton'
p371
asg67
I00
sg68
I00
sg69
F0
sg70
F160.934
sg71
I76
sg72
S'Epping'
p372
sg73
F0
sg74
F0
sS'm'
F249750
sg75
I0
sg76
g340
sg80
F11.175972222222223
sg81
F96.560400000000001
sg82
F61532.149296000003
sg83
F0
sS'x'
F59694.313812920926
sg84
(lp373
sg97
F96.560400000000001
sg98
(lp374
S'59.786981'
p375
aS'37150'
p376
aS'1'
asg102
F1710793.5899821213
sba(i__main__
Tr
p377
(dp378
g3
F16620534.160315199
sg4
g225
sg8
I36
sg9
F25899.752356000001
sg10
F1
sg11
F0
sg12
I9223372036854775807
sg13
F11700100
sg14
I9223372036854775807
sg15
I00
sg16
F178.89409130223623
sg17
S'sig:Epping:40600'
p379
sg19
F96.560400000000001
sg20
I0
sg21
I9223372036854775807
sg22
F40.233499999999999
sg23
I11
sg24
I0
sg25
I10
sg26
F0
sS'v'
F19.838689953570558
sg27
I930
sg28
I00
sg29
F-1
sg30
F71.419283832854006
sg31
g229
sg35
F26.822333333333333
sg36
F73707.772000000012
sg37
I00
sg38
I00
sg39
I00
sg40
I9223372036854775807
sg41
S'green'
p380
sg43
F0.0035178547964477198
sg44
F65.391512071116395
sg45
F405.36491613583757
sg46
F65982.940000000002
sg47
g48
sS'a'
F0.033360251204692409
sg49
F1
sg50
F168524.21765502216
sg51
F0
sg52
F0
sg53
I00
sg54
F405.36491613583757
sg55
I00
sg56
F0
sg57
F0.033360251204692409
sg58
S'Epping'
p381
sg60
S'MAIN19'
p382
sg62
(lp383
S'69.130326238'
p384
aS'THB'
p385
aS'Theydon-Bois'
p386
asg67
I00
sg68
I00
sg69
F0
sg70
F160.934
sg71
I83
sg72
S'Epping'
p387
sg73
F0
sg74
F0
sS'm'
F249750
sg75
I0
sg76
g340
sg80
F11.175972222222223
sg81
F96.560400000000001
sg82
F69130.326237999994
sg83
F0
sS'x'
F65391.512071116391
sg84
(lp388
sg97
F96.560400000000001
sg98
(lp389
S'65.98294'
p390
aS'41000'
p391
aS'1'
asg102
F1712898.9899819759
sba(i__main__
Tr
p392
(dp393
g3
F16633445.648204057
sg4
g5
sg8
I1
sg9
F25899.752356000001
sg10
F1
sg11
F0
sg12
I9223372036854775807
sg13
F11700100
sg14
I9223372036854775807
sg15
I00
sg16
F188.25909172936622
sg17
S'sig:WestRuislip:900'
p394
sg19
F96.560400000000001
sg20
I0
sg21
I9223372036854775807
sg22
F72.420299999999997
sg23
I12
sg24
I-1
sg25
I1
sg26
F0
sS'v'
F20.35123020449694
sg27
I930
sg28
I00
sg29
F-1
sg30
F73.264428736188989
sg31
g32
sg35
F26.822333333333333
sg36
F24140.099999999999
sg37
I00
sg38
I00
sg39
I00
sg40
I9223372036854775807
sg41
S'green'
p395
sg43
F0.00052871575296089168
sg44
F2.0294157093655385
sg45
F214.60495560132574
sg46
F2414.0100000000002
sg47
g48
sS'a'
F0.012623491459229747
sg49
F1
sg50
F65442.866446173983
sg51
F0
sg52
F0
sg53
I00
sg54
F214.60495560132574
sg55
I00
sg56
F0
sg57
F0.012623491459229747
sg58
S'WestRuislip'
p396
sg60
S'MAIN20'
p397
sg62
(lp398
S'5.3751795066'
p399
aS'THB'
p400
aS'Theydon-Bois'
p401
asg67
I00
sg68
I00
sg69
F0
sg70
F160.934
sg71
I4
sg72
S''
sg73
F0
sg74
F0
sS'm'
F249750
sg75
I0
sg76
g77
sg80
F20.11675
sg81
F96.560400000000001
sg82
F5375.1795066000004
sg83
F0
sS'x'
F2029.4157093655383
sg84
(lp402
sg97
F96.560400000000001
sg98
(lp403
S'2.41401'
p404
aS'1500'
p405
aS'1'
asg102
F1709808.6499821942
sba(i__main__
Tr
p406
(dp407
g3
F16605233.368255721
sg4
g5
sg8
I2
sg9
F25899.752356000001
sg10
F1
sg11
F0
sg12
I9223372036854775807
sg13
F11700100
sg14
I9223372036854775807
sg15
I00
sg16
F193.97447174445483
sg17
S'sig:WestRuislip:5500'
p408
sg19
F96.560400000000001
sg20
I0
sg21
I9223372036854775807
sg22
F72.420299999999997
sg23
I12
sg24
I-1
sg25
I1
sg26
F0
sS'v'
F20.657780777841939
sg27
I930
sg28
I00
sg29
F-1
sg30
F74.368010800230977
sg31
g32
sg35
F26.822333333333333
sg36
F24140.099999999999
sg37
I00
sg38
I01
sg39
I00
sg40
I9223372036854775807
sg41
S'green'
p409
sg43
F0.002998830009647522
sg44
F8.7998816017161587
sg45
F214.60495560132574
sg46
F8851.369999999999
sg47
g48
sS'a'
F0.00033317992244570951
sg49
F1
sg50
F1764.9485217891561
sg51
F0
sg52
F0
sg53
I00
sg54
F214.60495560132574
sg55
I00
sg56
F0
sg57
F0.00033317992244570951
sg58
S'WestRuislip'
p410
sg60
S'MAIN21'
p411
sg62
(lp412
S'10.18551286'
p413
aS'DBD'
p414
aS'Debden'
p415
asg67
I00
sg68
I00
sg69
F0
sg70
F160.934
sg71
I12
sg72
S''
sg73
F0
sg74
F0
sS'm'
F249750
sg75
I0
sg76
g77
sg80
F20.11675
sg81
F96.560400000000001
sg82
F10185.512859999999
sg83
F0
sS'x'
F8799.8816017161589
sg84
(lp416
sg97
F96.560400000000001
sg98
(lp417
S'8.85137'
p418
aS'5500'
p419
aS'1'
asg102
F1700360.9699824704
sba(i__main__
Tr
p420
(dp421
g3
F16647932.326147661
sg4
g5
sg8
I10
sg9
F25899.752356000001
sg10
F1
sg11
F0
sg12
I9223372036854775807
sg13
F11700100
sg14
I9223372036854775807
sg15
I00
sg16
F188.24740158728321
sg17
S'sig:WestRuislip:17300'
p422
sg19
F80.466999999999999
sg20
I0
sg21
I9223372036854775807
sg22
F64.373599999999996
sg23
I11
sg24
I-1
sg25
I3
sg26
F0
sS'v'
F20.350598458404772
sg27
I930
sg28
I00
sg29
F-1
sg30
F73.262154450257185
sg31
g32
sg35
F22.351944444444445
sg36
F34118.008000000002
sg37
I00
sg38
I00
sg39
I00
sg40
I9223372036854775807
sg41
S'green'
p423
sg43
F0.0004495175537082724
sg44
F28.357727869474608
sg45
F122.63140320075763
sg46
F29098.798407999999
sg47
g48
sS'a'
F0.012648901744774317
sg49
F1
sg50
F65572.51664645689
sg51
F0
sg52
F0
sg53
I00
sg54
F122.63140320075763
sg55
I00
sg56
F0
sg57
F0.012648901744774317
sg58
S'WestRuislip'
p424
sg60
S'BRCH1'
p425
sg62
(lp426
S'28.989524222'
p427
aS'STR'
p428
aS'Stratford'
p429
aS'X'
asg67
I00
sg68
I00
sg69
F0
sg70
F160.934
sg71
I37
sg72
S''
sg73
F0
sg74
F0
sS'm'
F249750
sg75
I0
sg76
(lp430
S'34.118008'
p431
aS'64.3736'
p432
asg80
F17.881555555555554
sg81
F80.466999999999999
sg82
F28989.524222
sg83
F0
sS'x'
F28357.727869474609
sg84
(lp433
sg97
F80.466999999999999
sg98
(lp434
S'29.098798408'
p435
aS'STR+100'
p436
aS'1'
asg102
F1704593.5499822651
sba(i__main__
Tr
p437
(dp438
g3
F16530396.261892887
sg4
g225
sg8
I9
sg9
F25899.752356000001
sg10
F1
sg11
F0
sg12
I9223372036854775807
sg13
F11700100
sg14
I9223372036854775807
sg15
I00
sg16
F82.774317216353083
sg17
S'sig:Epping:12850'
p439
sg19
F88.5137
sg20
I0
sg21
I9223372036854775807
sg22
F40.233499999999999
sg23
I11
sg24
I-1
sg25
I3
sg26
F0
sS'v'
F13.489072904541173
sg27
I930
sg28
I00
sg29
F-1
sg30
F48.560662456348226
sg31
g229
sg35
F24.587138888888887
sg36
F22530.760000000002
sg37
I00
sg38
I00
sg39
I00
sg40
I9223372036854775807
sg41
S'green'
p440
sg43
F-0.0017233184229402865
sg44
F21.436278730481099
sg45
F327.01707520202007
sg121
F1774.1500000000001
sg46
F21628.242128000002
sg47
g48
sS'a'
F-1.1000000000000001
sg49
F1
sg50
F0
sg51
F0
sg52
F0
sg53
I00
sg54
F327.01707520202007
sg55
I01
sg56
F0
sg57
F-1.1000000000000001
sg58
S'Epping'
p441
sg60
S'BRCH2'
p442
sg62
(lp443
S'21.518967942'
p444
aS'EAC'
p445
aS'East-Acton'
p446
asg67
I00
sg68
I00
sg69
F0
sg70
F160.934
sg71
I25
sg72
S''
sg73
F0
sg74
F0
sS'm'
F249750
sg75
I0
sg76
(lp447
S'22.53076'
p448
aS'40.2335'
p449
asg80
F11.175972222222223
sg81
F88.5137
sg82
F21518.967941999999
sg83
F0
sS'x'
F21436.278730481099
sg84
(lp450
sg97
F88.5137
sg98
(lp451
S'21.628242128'
p452
aS'EAC+100'
p453
aS'1'
asg102
F1712724.7499821482
sba(i__main__
Tr
p454
(dp455
g3
F16505813.888515951
sg4
g225
sg8
I28
sg9
F25899.752356000001
sg10
F1
sg11
F0
sg12
I9223372036854775807
sg13
F11700100
sg14
I9223372036854775807
sg15
I00
sg16
F0
sg17
S'sig:Epping:27900'
p456
sg19
F80.466999999999999
sg20
I0
sg21
I9223372036854775807
sg22
F64.373599999999996
sg23
I11
sg24
I-1
sg25
I8
sg26
F58509.055
sS'v'
F0
sg27
I930
sg28
I01
sg29
F-1
sg30
F0
sg31
g229
sg35
F22.351944444444445
sg36
F46670.860000000001
sg37
I00
sg38
I00
sg39
I01
sg40
I9223372036854775807
sg41
S'green'
p457
sg43
F-0.003148009795036588
sg44
F45.51599817543422
sg45
F122.63140320075763
sg46
F45625.271802000003
sg47
g48
sS'a'
F0
sg49
F1
sg50
F0
sg51
F0
sg52
F0
sg53
I00
sg54
F122.63140320075763
sg55
I00
sg56
F0
sg57
F0
sg58
S'Epping'
p458
sg60
S'BRCH3'
p459
sg62
(lp460
S'47.684261398'
p461
aS'LEY'
p462
aS'Leyton'
p463
asg67
I00
sg68
I00
sg69
F0
sg70
F160.934
sg71
I58
sg72
S''
sg73
F0
sg74
F0
sS'm'
F249750
sg75
I0
sg76
(lp464
S'46.67086'
p465
aS'64.3736'
p466
asg80
F17.881555555555554
sg81
F80.466999999999999
sg82
F47684.261397999995
sg83
F0
sS'x'
F45515.998175434223
sg84
(lp467
sg97
F80.466999999999999
sg98
(lp468
S'45.625271802'
p469
aS'STR+100'
p470
aS'1'
asg102
F1730925.5699816186
sba(i__main__
Tr
p471
(dp472
g3
F16655834.746365055
sg4
g5
sg8
I22
sg9
F25899.752356000001
sg10
F1
sg11
F0
sg12
I9223372036854775807
sg13
F11700100
sg14
I9223372036854775807
sg15
I00
sg16
F5.9351198443185567
sg17
S'sig:WestRuislip:28400'
p473
sg19
F64.373599999999996
sg20
I0
sg21
I9223372036854775807
sg22
F40.233499999999999
sg23
I11
sg24
I-1
sg25
I7
sg26
F0
sS'v'
F3.6079835903184652
sg27
I930
sg28
I00
sg29
F-1
sg30
F12.988740925146475
sg31
g32
sg35
F17.881555555555554
sg36
F49889.539999999994
sg37
I00
sg38
I00
sg39
I00
sg40
I9223372036854775807
sg41
S'green'
p474
sg43
F-0.00055574302977416917
sg44
F46.165919753614631
sg45
F132.85068680082065
sg46
F46281.238786000002
sg47
g48
sS'a'
F-1.1000000000000001
sg49
F1
sg50
F0
sg51
F0
sg52
F0
sg53
I00
sg54
F132.85068680082065
sg55
I01
sg56
F0
sg57
F-1.1000000000000001
sg58
S'WestRuislip'
p475
sg60
S'BRCH4'
p476
sg62
(lp477
S'46.171803666'
p478
aS'LAN'
p479
aS'Lancaster-Gate'
p480
asg67
I00
sg68
I00
sg69
F0
sg70
F160.934
sg71
I61
sg72
S''
sg73
F0
sg74
F0
sS'm'
F249750
sg75
I0
sg76
g163
sg80
F11.175972222222223
sg81
F64.373599999999996
sg82
F46171.803666
sg83
F0
sS'x'
F46165.919753614631
sg84
(lp481
sg97
F64.373599999999996
sg98
(lp482
S'46.281238786'
p483
aS'LAN+100'
p484
aS'1'
asg102
F1701936.3899824989
sbasg97
F96.560400000000001
sg98
(lp485
S'13.082646728'
p486
aS'LOU+100'
p487
aS'1'
asg102
F1697306.9299824447
sb.