(dp1
S'ncyc'
p2
I7380100
sS'schedule'
p3
S'tr.txt'
p4
sS'route'
p5
S'LondonCentral/'
p6
sS'version'
p7
S'146'
p8
sS't'
F36900.5
sS'minVersion'
p9
g8
sS'simID'
p10
S'10447875-6e05-4775-94e0-64b81b7e1f4a'
p11
sS'schedOrders'
p12
(lp13
s.