(i__main__
Tr
p1
(dp2
S'mechWear'
p3
F15330684.445111673
sS'nextGRD'
p4
(lp5
S'0.0'
p6
aS'0.0'
p7
asS'STAcnt'
p8
I10
sS'maxSquareSpeed'
p9
F25899.752356000001
sS'consumptionCutOff'
p10
F1
sS'grade'
p11
F0
sS'nGRDx'
p12
I9223372036854775807
sS'admissionWear'
p13
F10800100
sS'transitionGRDx'
p14
I9223372036854775807
sS'coasting'
p15
I01
sS'BDzero'
p16
F56.766188110815847
sS'redisSIG'
p17
S'sig:Epping:13900'
p18
sS'maxTIV'
p19
F40.233499999999999
sS'CRVcnt'
p20
I0
sS'nCRVx'
p21
I9223372036854775807
sS'nTIVvl'
p22
F64.373599999999996
sS'trip'
p23
I10
sS'pathCnt'
p24
I-1
sS'TIVcnt'
p25
I4
sS'waitSta'
p26
F0
sS'v'
F11.175223212258217
sS'pax'
p27
I930
sS'startingPhase'
p28
I00
sS'advTIV'
p29
F-1
sS'vK'
p30
F40.23080356412958
sS'nextCRV'
p31
(lp32
S'0.0'
p33
aS'0.0'
p34
asS'cv'
p35
F24.587138888888887
sS'nTIVx'
p36
F23979.166000000001
sS'sigBrake'
p37
I00
sS'sigSpotted'
p38
I00
sS'inSta'
p39
I00
sS'transitionCRVx'
p40
I9223372036854775807
sS'advSIGcol'
p41
S'green'
p42
sS'aGaussFactor'
p43
F-0.00035512868790499265
sS'PK'
p44
F22.761668075226204
sS'deltaBDtiv'
p45
F0
sS'nSIGx'
p46
F23094.028999999999
sS'nTIVtype'
p47
S'INC'
p48
sS'a'
F0
sS'ratioGRD'
p49
F1
sS'power'
p50
F3.7832550770024347
sS'gradient'
p51
F0
sS'BDsta'
p52
F0
sS'initSwitchSeg'
p53
I00
sS'BDtiv'
p54
F327.01707520202007
sS'staBrake'
p55
I00
sS'waitReact'
p56
F0
sS'aFull'
p57
F0
sS'segment'
p58
S'Epping'
p59
sS'name'
p60
S'MAIN1'
p61
sS'nextSTA'
p62
(lp63
S'23.705417266'
p64
aS'WCI'
p65
aS'White-City'
p66
asS'react'
p67
I00
sS'atSig'
p68
I00
sS'deltaBDsta'
p69
F0
sS'tgtVk'
p70
F160.934
sS'SIGcnt'
p71
I27
sS'pathBranch'
p72
S''
sS'oldGradient'
p73
F0
sS'critVk'
p74
F0
sS'm'
F249750
sS'GRDcnt'
p75
I0
sS'nextTIV'
p76
(lp77
S'23.979166'
p78
aS'64.3736'
p79
asS'nv'
p80
F11.175972222222223
sS'maxVk'
p81
F40.233499999999999
sS'nSTAx'
p82
F23705.417266
sS'DBrt'
p83
F0
sS'x'
F22761.668075226204
sS'trs'
p84
(lp85
(i__main__
Tr
p86
(dp87
g3
F15298428.131814931
sg4
g5
sg8
I12
sg9
F25899.752356000001
sg10
F1
sg11
F0
sg12
I9223372036854775807
sg13
F10800100
sg14
I9223372036854775807
sg15
I00
sg16
F143.46521010532737
sg17
S'sig:Epping:15850'
p88
sg19
F64.373599999999996
sg20
I0
sg21
I9223372036854775807
sg22
F24.1401
sg23
I10
sg24
I-1
sg25
I5
sg26
F0
sS'v'
F17.766396912323401
sg27
I930
sg28
I00
sg29
F-1
sg30
F63.959028884364244
sg31
g32
sg35
F17.881555555555554
sg36
F35003.145000000004
sg37
I00
sg38
I01
sg39
I00
sg40
I9223372036854775807
sg41
S'green'
p89
sg43
F-0.003940669740111564
sg44
F25.412560556699788
sg45
F187.35353266782403
sg46
F25508.039000000001
sg47
S'DEC'
p90
sS'a'
F0.12043734713751568
sg49
F1
sg50
F544230.43813614373
sg51
F0
sg52
F0
sg53
I00
sg54
F187.35353266782403
sg55
I00
sg56
F0
sg57
F0.12043734713751568
sg58
S'Epping'
p91
sg60
S'MAIN14'
p92
sg62
(lp93
S'25.873681048'
p94
aS'HPA'
p95
aS'Holland-Park'
p96
asg67
I00
sg68
I00
sg69
F0
sg70
F160.934
sg71
I31
sg72
S''
sg73
F0
sg74
F0
sS'm'
F249750
sg75
I0
sg76
(lp97
S'35.003145'
p98
aS'24.1401'
p99
asg80
F6.7055833333333332
sg81
F64.373599999999996
sg82
F25873.681048000002
sg83
F0
sS'x'
F25412.560556699787
sg84
(lp100
sS'cTIVvl'
p101
F64.373599999999996
sS'nextSIG'
p102
(lp103
S'25.508039'
p104
aS'15850'
p105
aS'1'
asS'brakeWear'
p106
F1567390.4399853058
sba(i__main__
Tr
p107
(dp108
g3
F15284408.748628598
sg4
g5
sg8
I15
sg9
F25899.752356000001
sg10
F1
sg11
F0
sg12
I9223372036854775807
sg13
F10800100
sg14
I9223372036854775807
sg15
I00
sg16
F32.567037477620623
sg17
S'sig:Epping:QUW+100'
p109
sg19
F64.373599999999996
sg20
I0
sg21
I9223372036854775807
sg22
F24.1401
sg23
I10
sg24
I-1
sg25
I5
sg26
F0
sS'v'
F8.4589835903181587
sg27
I930
sg28
I00
sg29
F-1
sg30
F30.452340925145371
sg31
g32
sg35
F17.881555555555554
sg36
F35003.145000000004
sg37
I00
sg38
I00
sg39
I00
sg40
I9223372036854775807
sg41
S'green'
p110
sg43
F-6.4758395319605507e-05
sg44
F28.282893885032223
sg45
F187.35353266782403
sg46
F28424.645882000001
sg47
g90
sS'a'
F-1.1000000000000001
sg49
F1
sg50
F0
sg51
F0
sg52
F0
sg53
I00
sg54
F187.35353266782403
sg55
I01
sg56
F0
sg57
F-1.1000000000000001
sg58
S'Epping'
p111
sg60
S'MAIN2'
p112
sg62
(lp113
S'28.315371696'
p114
aS'LAN'
p115
aS'Lancaster-Gate'
p116
asg67
I00
sg68
I00
sg69
F0
sg70
F160.934
sg71
I35
sg72
S''
sg73
F0
sg74
F0
sS'm'
F249750
sg75
I0
sg76
g97
sg80
F6.7055833333333332
sg81
F64.373599999999996
sg82
F28315.371695999998
sg83
F0
sS'x'
F28282.893885032223
sg84
(lp117
sg101
F64.373599999999996
sg102
(lp118
S'28.424645882'
p119
aS'LAN+100'
p120
aS'1'
asg106
F1577133.3599850642
sba(i__main__
Tr
p121
(dp122
g3
F15227299.562550953
sg4
g5
sg8
I19
sg9
F25899.752356000001
sg10
F1
sg11
F0
sg12
I9223372036854775807
sg13
F10800100
sg14
I9223372036854775807
sg15
I00
sg16
F39.862932419769642
sg17
S'sig:Epping:BST+100'
p123
sg19
F64.373599999999996
sg20
I0
sg21
I9223372036854775807
sg22
F24.1401
sg23
I10
sg24
I-1
sg25
I5
sg26
F0
sS'v'
F9.3679537460785376
sg27
I930
sg28
I00
sg29
F-1
sg30
F33.724633485882734
sg31
g32
sg35
F17.881555555555554
sg36
F35003.145000000004
sg37
I00
sg38
I00
sg39
I00
sg40
I9223372036854775807
sg41
S'green'
p124
sg43
F0.0023408792183992862
sg44
F31.003041291803825
sg45
F187.35353266782403
sS'sigPoll'
p125
F245.72999999999999
sg46
F31084.884901999998
sg47
g90
sS'a'
F0.64172349724730593
sg49
F1
sg50
F1525784.8049650937
sg51
F0
sg52
F0
sg53
I00
sg54
F187.35353266782403
sg55
I00
sg56
F0
sg57
F0.64172349724730593
sg58
S'Epping'
p126
sg60
S'MAIN15'
p127
sg62
(lp128
S'31.813754988'
p129
aS'TTT'
p130
aS'Tottenham-Court-Road'
p131
aS'X'
asg67
I00
sg68
I00
sg69
F0
sg70
F160.934
sg71
I39
sg72
S''
sg73
F0
sg74
F0
sS'm'
F249750
sg75
I0
sg76
g97
sg80
F6.7055833333333332
sg81
F64.373599999999996
sg82
F31813.754988000001
sg83
F0
sS'x'
F31003.041291803824
sg84
(lp132
sg101
F64.373599999999996
sg102
(lp133
S'31.084884902'
p134
aS'OXF+100'
p135
aS'1'
asg106
F1578572.0499850295
sba(i__main__
Tr
p136
(dp137
g3
F15253251.323668281
sg4
g5
sg8
I27
sg9
F25899.752356000001
sg10
F1
sg11
F0
sg12
I9223372036854775807
sg13
F10800100
sg14
I9223372036854775807
sg15
I00
sg16
F134.80226648321198
sg17
S'sig:Epping:MIL+100'
p138
sg19
F80.466999999999999
sg20
I0
sg21
I9223372036854775807
sg22
F64.373599999999996
sg23
I10
sg24
I-1
sg25
I8
sg26
F0
sS'v'
F17.221784645267292
sg27
I930
sg28
I00
sg29
F-1
sg30
F61.998424722962248
sg31
g32
sg35
F22.351944444444445
sg36
F46670.860000000001
sg37
I00
sg38
I00
sg39
I00
sg40
I9223372036854775807
sg41
S'green'
p139
sg43
F0.00028069140657300244
sg44
F42.267561648554782
sg45
F122.63140320075763
sg46
F42808.444000000003
sg47
g90
sS'a'
F0.14447182573184636
sg49
F1
sg50
F632653.11130020954
sg51
F0
sg52
F0
sg53
I00
sg54
F122.63140320075763
sg55
I00
sg56
F0
sg57
F0.14447182573184636
sg58
S'Epping'
p140
sg60
S'MAIN3'
p141
sg62
(lp142
S'45.515997616'
p143
aS'STR'
p144
aS'Stratford'
p145
aS'X'
asg67
I00
sg68
I00
sg69
F0
sg70
F160.934
sg71
I55
sg72
S''
sg73
F0
sg74
F0
sS'm'
F249750
sg75
I0
sg76
(lp146
S'46.67086'
p147
aS'64.3736'
p148
asg80
F17.881555555555554
sg81
F80.466999999999999
sg82
F45515.997616000001
sg83
F0
sS'x'
F42267.56164855478
sg84
(lp149
sg101
F80.466999999999999
sg102
(lp150
S'42.808444'
p151
aS'26600'
p152
aS'1'
asg106
F1593463.5199846304
sba(i__main__
Tr
p153
(dp154
g3
F15284780.332140548
sg4
g5
sg8
I30
sg9
F25899.752356000001
sg10
F1
sg11
F0
sg12
I9223372036854775807
sg13
F10800100
sg14
I9223372036854775807
sg15
I00
sg16
F5.0540410227272083
sg17
S'sig:Epping:30100'
p155
sg19
F64.373599999999996
sg20
I0
sg21
I9223372036854775807
sg22
F96.560400000000001
sg23
I10
sg24
I0
sg25
I9
sg26
F0
sS'v'
F3.3409999999999789
sg27
I930
sg28
I00
sg29
F-1
sg30
F12.027599999999925
sg31
g32
sg35
F22.351944444444445
sg36
F49889.539999999994
sg37
I00
sg38
I00
sg39
I00
sg40
I9223372036854775807
sg41
S'green'
p156
sg43
F0.0019576707825274737
sg44
F49.783925079002515
sg45
F0
sg46
F49888.896264000003
sg47
g48
sS'a'
F1.3
sg49
F1
sg50
F875811.48865368927
sg51
F0
sg52
F0
sg53
I00
sg54
F122.63140320075763
sg55
I00
sg56
F0
sg57
F1.3
sg58
S'Epping'
p157
sg60
S'BRCH7'
p158
sg62
(lp159
S'52.05732098'
p160
aS'SNR'
p161
aS'Snaresbrook'
p162
asg67
I00
sg68
I00
sg69
F0
sg70
F160.934
sg71
I64
sg72
S'Epping'
p163
sg73
F0
sg74
F0
sS'm'
F249750
sg75
I0
sg76
(lp164
S'49.88954'
p165
aS'96.5604'
p166
asg80
F17.881555555555554
sg81
F64.373599999999996
sg82
F52057.320979999997
sg83
F0
sS'x'
F49783.925079002518
sg84
(lp167
sg101
F64.373599999999996
sg102
(lp168
S'49.888896264'
p169
aS'LYS+100'
p170
aS'1'
asg106
F1582800.9999849736
sba(i__main__
Tr
p171
(dp172
g3
F15379892.576968241
sg4
g5
sg8
I35
sg9
F25899.752356000001
sg10
F1
sg11
F0
sg12
I9223372036854775807
sg13
F10800100
sg14
I9223372036854775807
sg15
I00
sg16
F32.268019515298391
sg17
S'sig:Epping:39500'
p173
sg19
F96.560400000000001
sg20
I0
sg21
I9223372036854775807
sg22
F40.233499999999999
sg23
I10
sg24
I0
sg25
I10
sg26
F0
sS'v'
F8.4200351719434696
sg27
I930
sg28
I00
sg29
F-1
sg30
F30.312126618996491
sg31
g32
sg35
F26.822333333333333
sg36
F73707.772000000012
sg37
I00
sg38
I00
sg39
I00
sg40
I9223372036854775807
sg41
S'green'
p174
sg43
F-0.0040145936117633538
sg44
F64.287792502536277
sg45
F405.36491613583757
sg46
F64429.283164
sg47
g90
sS'a'
F-1.1000000000000001
sg49
F1
sg50
F0
sg51
F0
sg52
F0
sg53
I00
sg54
F405.36491613583757
sg55
I01
sg56
F0
sg57
F-1.1000000000000001
sg58
S'Epping'
p175
sg60
S'BRCH8'
p176
sg62
(lp177
S'64.320008978'
p178
aS'DBD'
p179
aS'Debden'
p180
asg67
I00
sg68
I00
sg69
F0
sg70
F160.934
sg71
I81
sg72
S'Epping'
p181
sg73
F0
sg74
F0
sS'm'
F249750
sg75
I0
sg76
(lp182
S'73.707772'
p183
aS'40.2335'
p184
asg80
F11.175972222222223
sg81
F96.560400000000001
sg82
F64320.008978000005
sg83
F0
sS'x'
F64287.792502536271
sg84
(lp185
sg101
F96.560400000000001
sg102
(lp186
S'64.429283164'
p187
aS'DBD+100'
p188
aS'1'
asg106
F1575849.5499849687
sba(i__main__
Tr
p189
(dp190
g3
F15393649.656249704
sg4
g5
sg8
I37
sg9
F25899.752356000001
sg10
F1
sg11
F0
sg12
I9223372036854775807
sg13
F10800100
sg14
I9223372036854775807
sg15
I00
sg16
F194.08388006613478
sg17
S'sig:Epping:45400'
p191
sg19
F96.560400000000001
sg20
I0
sg21
I9223372036854775807
sg22
F40.233499999999999
sg23
I10
sg24
I0
sg25
I10
sg26
F0
sS'v'
F20.663604644359218
sg27
I930
sg28
I00
sg29
F-1
sg30
F74.38897671969319
sg31
g32
sg35
F26.822333333333333
sg36
F73707.772000000012
sg37
I00
sg38
I00
sg39
I00
sg40
I9223372036854775807
sg41
S'green'
p192
sg43
F0.00038741686739671746
sg44
F73.175072832621723
sg45
F405.36491613583757
sg46
F73667.216632000011
sg47
g90
sS'a'
F0.00010043207780348393
sg49
F1
sg50
F540.31432366323816
sg51
F0
sg52
F0
sg53
I00
sg54
F405.36491613583757
sg55
I00
sg56
F0
sg57
F0.00010043207780348393
sg58
S'Epping'
p193
sg60
S'MAIN7'
p194
sg62
(lp195
S'74.031732142'
p196
aS'EPP'
p197
aS'Epping'
p198
asg67
I00
sg68
I00
sg69
F0
sg70
F160.934
sg71
I93
sg72
S'Epping'
p199
sg73
F0
sg74
F0
sS'm'
F249750
sg75
I0
sg76
g182
sg80
F11.175972222222223
sg81
F96.560400000000001
sg82
F74031.732141999993
sg83
F0
sS'x'
F73175.072832621721
sg84
(lp200
sg101
F96.560400000000001
sg102
(lp201
S'73.667216632'
p202
aS'EPP-200'
p203
aS'1'
asg106
F1568916.2499852357
sba(i__main__
Tr
p204
(dp205
g3
F15415853.152992554
sg4
(lp206
S'0.0'
p207
aS'0.0'
p208
asg8
I3
sg9
F25899.752356000001
sg10
F1
sg11
F0
sg12
I9223372036854775807
sg13
F10800100
sg14
I9223372036854775807
sg15
I00
sg16
F183.21936838370044
sg17
S'sig:WestRuislip:DBD+100'
p209
sg19
F96.560400000000001
sg20
I0
sg21
I9223372036854775807
sg22
F72.420299999999997
sg23
I11
sg24
I-1
sg25
I1
sg26
F0
sS'v'
F20.077035784154333
sg27
I930
sg28
I00
sg29
F-1
sg30
F72.277328822955596
sg31
(lp210
S'0.0'
p211
aS'0.0'
p212
asg35
F26.822333333333333
sg36
F24140.099999999999
sg37
I00
sg38
I00
sg39
I00
sg40
I9223372036854775807
sg41
S'green'
p213
sg43
F0.00047061295912804437
sg44
F11.425519135030386
sg45
F214.60495560132574
sg46
F11748.182000000001
sg47
g90
sS'a'
F0.023686006985645609
sg49
F1
sg50
F121110.26828840016
sg51
F0
sg52
F0
sg53
I00
sg54
F214.60495560132574
sg55
I00
sg56
F0
sg57
F0.023686006985645609
sg58
S'WestRuislip'
p214
sg60
S'MAIN8'
p215
sg62
(lp216
S'12.9733081684'
p217
aS'LOU'
p218
aS'Loughton'
p219
asg67
I00
sg68
I00
sg69
F0
sg70
F160.934
sg71
I16
sg72
S''
sg73
F0
sg74
F0
sS'm'
F249750
sg75
I0
sg76
(lp220
S'24.1401'
p221
aS'72.4203'
p222
asg80
F20.11675
sg81
F96.560400000000001
sg82
F12973.308168399999
sg83
F0
sS'x'
F11425.519135030387
sg84
(lp223
sg101
F96.560400000000001
sg102
(lp224
S'11.748182'
p225
aS'7300'
p226
aS'1'
asg106
F1566363.1499854664
sba(i__main__
Tr
p227
(dp228
g3
F15396558.379962781
sg4
g206
sg8
I7
sg9
F25899.752356000001
sg10
F1
sg11
F0
sg12
I9223372036854775807
sg13
F10800100
sg14
I9223372036854775807
sg15
I00
sg16
F2.1552301136363394
sg17
S'sig:WestRuislip:12300'
p229
sg19
F96.560400000000001
sg20
I0
sg21
I9223372036854775807
sg22
F72.420299999999997
sg23
I11
sg24
I-1
sg25
I1
sg26
F0
sS'v'
F2.1839999999999877
sg27
I930
sg28
I01
sg29
F-1
sg30
F7.8623999999999556
sg31
g210
sg35
F26.822333333333333
sg36
F24140.099999999999
sg37
I00
sg38
I00
sg39
I00
sg40
I9223372036854775807
sg41
S'green'
p230
sg43
F-0.0027209975149755849
sg44
F20.518672681077167
sg45
F214.60495560132574
sg46
F20662.477193999999
sg47
g90
sS'a'
F1.3
sg49
F1
sg50
F500162.21801552502
sg51
F0
sg52
F0
sg53
I00
sg54
F214.60495560132574
sg55
I00
sg56
F0
sg57
F1.3
sg58
S'WestRuislip'
p231
sg60
S'MAIN9'
p232
sg62
(lp233
S'22.430015316'
p234
aS'SNR'
p235
aS'Snaresbrook'
p236
asg67
I00
sg68
I00
sg69
F0
sg70
F160.934
sg71
I27
sg72
S''
sg73
F0
sg74
F0
sS'm'
F249750
sg75
I0
sg76
g220
sg80
F20.11675
sg81
F96.560400000000001
sg82
F22430.015315999997
sg83
F0
sS'x'
F20518.672681077165
sg84
(lp237
sg101
F96.560400000000001
sg102
(lp238
S'20.662477194'
p239
aS'SWO+100'
p240
aS'1'
asg106
F1570629.6099854023
sba(i__main__
Tr
p241
(dp242
g3
F15362902.86827857
sg4
g206
sg8
I11
sg9
F25899.752356000001
sg10
F1
sg11
F0
sg12
I9223372036854775807
sg13
F10800100
sg14
I9223372036854775807
sg15
I00
sg16
F136.88174983434419
sg17
S'sig:WestRuislip:STR+100'
p243
sg19
F80.466999999999999
sg20
I0
sg21
I9223372036854775807
sg22
F64.373599999999996
sg23
I10
sg24
I-1
sg25
I3
sg26
F0
sS'v'
F17.354074401201608
sg27
I930
sg28
I00
sg29
F-1
sg30
F62.474667844325786
sg31
g210
sg35
F22.351944444444445
sg36
F34118.008000000002
sg37
I00
sg38
I00
sg39
I00
sg40
I9223372036854775807
sg41
S'green'
p244
sg43
F-0.0040042789282322792
sg44
F29.419788465674905
sg45
F122.63140320075763
sg46
F29772.790000000001
sg47
g90
sS'a'
F0.13857937008766216
sg49
F1
sg50
F611550.88794568437
sg51
F0
sg52
F0
sg53
I00
sg54
F122.63140320075763
sg55
I00
sg56
F0
sg57
F0.13857937008766216
sg58
S'WestRuislip'
p245
sg60
S'MAIN11'
p246
sg62
(lp247
S'32.65189926'
p248
aS'MIL'
p249
aS'Mile-End'
p250
asg67
I00
sg68
I00
sg69
F0
sg70
F160.934
sg71
I38
sg72
S''
sg73
F0
sg74
F0
sS'm'
F249750
sg75
I0
sg76
(lp251
S'34.118008'
p252
aS'64.3736'
p253
asg80
F17.881555555555554
sg81
F80.466999999999999
sg82
F32651.899260000002
sg83
F0
sS'x'
F29419.788465674905
sg84
(lp254
sg101
F80.466999999999999
sg102
(lp255
S'29.77279'
p256
aS'18500'
p257
aS'1'
asg106
F1573826.429985303
sba(i__main__
Tr
p258
(dp259
g3
F15380353.860243682
sg4
g206
sg8
I13
sg9
F25899.752356000001
sg10
F1
sg11
F0
sg12
I9223372036854775807
sg13
F10800100
sg14
I9223372036854775807
sg15
I00
sg16
F136.78083621943679
sg17
S'sig:WestRuislip:23300'
p260
sg19
F64.373599999999996
sg20
I0
sg21
I9223372036854775807
sg22
F24.1401
sg23
I10
sg24
I-1
sg25
I4
sg26
F0
sS'v'
F17.341483590317971
sg27
I930
sg28
I00
sg29
F-1
sg30
F62.429340925144693
sg31
g210
sg35
F17.881555555555554
sg36
F38302.292000000001
sg37
I00
sg38
I00
sg39
I00
sg40
I9223372036854775807
sg41
S'green'
p261
sg43
F-0.0026720620559859778
sg44
F37.89048281925556
sg45
F187.35353266782403
sg46
F38136.369046
sg47
g90
sS'a'
F-1.1000000000000001
sg49
F1
sg50
F8.6396310286969982
sg51
F0
sg52
F0
sg53
I00
sg54
F187.35353266782403
sg55
I01
sg56
F0
sg57
F-1.1000000000000001
sg58
S'WestRuislip'
p262
sg60
S'MAIN18'
p263
sg62
(lp264
S'38.02709486'
p265
aS'LIV'
p266
aS'Liverpool-Street'
p267
aS'X'
asg67
I00
sg68
I00
sg69
F0
sg70
F160.934
sg71
I49
sg72
S''
sg73
F0
sg74
F0
sS'm'
F249750
sg75
I0
sg76
(lp268
S'38.302292'
p269
aS'24.1401'
p270
asg80
F6.7055833333333332
sg81
F64.373599999999996
sg82
F38027.094859999997
sg83
F0
sS'x'
F37890.482819255558
sg84
(lp271
sg101
F64.373599999999996
sg102
(lp272
S'38.136369046'
p273
aS'LIV+100'
p274
aS'1'
asg106
F1573838.5299851508
sba(i__main__
Tr
p275
(dp276
g3
F15336552.983036824
sg4
g206
sg8
I16
sg9
F25899.752356000001
sg10
F1
sg11
F0
sg12
I9223372036854775807
sg13
F10800100
sg14
I9223372036854775807
sg15
I00
sg16
F49.22022476453089
sg17
S'sig:WestRuislip:25000'
p277
sg19
F64.373599999999996
sg20
I0
sg21
I9223372036854775807
sg22
F40.233499999999999
sg23
I10
sg24
I-1
sg25
I7
sg26
F0
sS'v'
F10.400483590318023
sg27
I930
sg28
I00
sg29
F-1
sg30
F37.441740925144884
sg31
g210
sg35
F17.881555555555554
sg36
F49889.539999999994
sg37
I00
sg38
I00
sg39
I00
sg40
I9223372036854775807
sg41
S'green'
p278
sg43
F0.00091729069807221014
sg44
F40.784022151328344
sg45
F132.85068680082065
sg46
F40942.414270000001
sg47
g90
sS'a'
F-1.1000000000000001
sg49
F1
sg50
F0
sg51
F0
sg52
F0
sg53
I00
sg54
F132.85068680082065
sg55
I01
sg56
F0
sg57
F-1.1000000000000001
sg58
S'WestRuislip'
p279
sg60
S'MAIN12'
p280
sg62
(lp281
S'40.833140084'
p282
aS'CHL'
p283
aS'Chancery-Lane'
p284
asg67
I00
sg68
I00
sg69
F0
sg70
F160.934
sg71
I53
sg72
S''
sg73
F0
sg74
F0
sS'm'
F249750
sg75
I0
sg76
(lp285
S'49.88954'
p286
aS'40.2335'
p287
asg80
F11.175972222222223
sg81
F64.373599999999996
sg82
F40833.140083999999
sg83
F0
sS'x'
F40784.022151328347
sg84
(lp288
sg101
F64.373599999999996
sg102
(lp289
S'40.94241427'
p290
aS'CHL+100'
p291
aS'1'
asg106
F1575674.0999852286
sba(i__main__
Tr
p292
(dp293
g3
F15265598.259657692
sg4
g206
sg8
I25
sg9
F25899.752356000001
sg10
F1
sg11
F0
sg12
I9223372036854775807
sg13
F10800100
sg14
I9223372036854775807
sg15
I00
sg16
F134.48477627973691
sg17
S'sig:WestRuislip:NOT+100'
p294
sg19
F64.373599999999996
sg20
I0
sg21
I9223372036854775807
sg22
F40.233499999999999
sg23
I10
sg24
I-1
sg25
I7
sg26
F0
sS'v'
F17.201497452245377
sg27
I930
sg28
I00
sg29
F-1
sg30
F61.925390828083358
sg31
g210
sg35
F17.881555555555554
sg36
F49889.539999999994
sg37
I00
sg38
I00
sg39
I00
sg40
I9223372036854775807
sg41
S'green'
p295
sg43
F-0.008504528517232518
sg44
F48.168854470907348
sg45
F132.85068680082065
sg46
F48722.768499999998
sg47
g90
sS'a'
F0.14537869523615451
sg49
F1
sg50
F635868.11780825839
sg51
F0
sg52
F0
sg53
I00
sg54
F132.85068680082065
sg55
I00
sg56
F0
sg57
F0.14537869523615451
sg58
S'WestRuislip'
p296
sg60
S'MAIN13'
p297
sg62
(lp298
S'48.613494314'
p299
aS'HPA'
p300
aS'Holland-Park'
p301
asg67
I00
sg68
I00
sg69
F0
sg70
F160.934
sg71
I65
sg72
S''
sg73
F0
sg74
F0
sS'm'
F249750
sg75
I0
sg76
g285
sg80
F11.175972222222223
sg81
F64.373599999999996
sg82
F48613.494314000003
sg83
F0
sS'x'
F48168.854470907347
sg84
(lp302
sg101
F64.373599999999996
sg102
(lp303
S'48.7227685'
p304
aS'HPA+100'
p305
aS'1'
asg106
F1586712.9299848306
sba(i__main__
Tr
p306
(dp307
g3
F15273817.794750744
sg4
g206
sg8
I32
sg9
F25899.752356000001
sg10
F1
sg11
F0
sg12
I9223372036854775807
sg13
F10800100
sg14
I9223372036854775807
sg15
I00
sg16
F128.24944949065988
sg17
S'sig:WestRuislip:PVL+100'
p308
sg19
F96.560400000000001
sg20
I0
sg21
I9223372036854775807
sg22
F64.373599999999996
sg23
I10
sg24
I0
sg25
I11
sg26
F0
sS'v'
F16.798103156880185
sg27
I930
sg28
I00
sg29
F-1
sg30
F60.473171364768668
sg31
g210
sg35
F26.822333333333333
sg36
F72903.101999999999
sg37
I00
sg38
I00
sg39
I00
sg40
I9223372036854775807
sg41
S'green'
p309
sg43
F0.003214994254438682
sg44
F61.13413163300212
sg45
F272.51422933501681
sg46
F61557.254999999997
sg47
g90
sS'a'
F0.16359858367373445
sg49
F1
sg50
F698643.42891629203
sg51
F0
sg52
F0
sg53
I00
sg54
F272.51422933501681
sg55
I00
sg56
F0
sg57
F0.16359858367373445
sg58
S'WestRuislip'
p310
sg60
S'BRCH9'
p311
sg62
(lp312
S'63.299526484'
p313
aS'GRF'
p314
aS'Greenford'
p315
asg67
I00
sg68
I00
sg69
F0
sg70
F160.934
sg71
I82
sg72
S'WestRuislip'
p316
sg73
F0
sg74
F0
sS'm'
F249750
sg75
I0
sg76
(lp317
S'72.903102'
p318
aS'64.3736'
p319
asg80
F17.881555555555554
sg81
F96.560400000000001
sg82
F63299.526483999995
sg83
F0
sS'x'
F61134.131633002122
sg84
(lp320
sg101
F96.560400000000001
sg102
(lp321
S'61.557255'
p322
aS'38250'
p323
aS'1'
asg106
F1589391.869984691
sba(i__main__
Tr
p324
(dp325
g3
F15262286.842665808
sg4
g206
sg8
I33
sg9
F25899.752356000001
sg10
F1
sg11
F0
sg12
I9223372036854775807
sg13
F10800100
sg14
I9223372036854775807
sg15
I00
sg16
F191.04767799301862
sg17
S'sig:WestRuislip:40550'
p326
sg19
F96.560400000000001
sg20
I0
sg21
I9223372036854775807
sg22
F64.373599999999996
sg23
I10
sg24
I0
sg25
I11
sg26
F0
sS'v'
F20.501371746403148
sg27
I930
sg28
I00
sg29
F-1
sg30
F73.804938287051328
sg31
g210
sg35
F26.822333333333333
sg36
F72903.101999999999
sg37
I00
sg38
I01
sg39
I00
sg40
I9223372036854775807
sg41
S'green'
p327
sg43
F-0.0017771328732404767
sg44
F65.185724001092325
sg45
F272.51422933501681
sg46
F65258.736999999994
sg47
g90
sS'a'
F0.0065941961354455229
sg49
F1
sg50
F34446.380464041846
sg51
F0
sg52
F0
sg53
I00
sg54
F272.51422933501681
sg55
I00
sg56
F0
sg57
F0.0065941961354455229
sg58
S'WestRuislip'
p328
sg60
S'MAIN16'
p329
sg62
(lp330
S'66.342466556'
p331
aS'NHO'
p332
aS'Northolt'
p333
asg67
I00
sg68
I00
sg69
F0
sg70
F160.934
sg71
I86
sg72
S'WestRuislip'
p334
sg73
F0
sg74
F0
sS'm'
F249750
sg75
I0
sg76
g317
sg80
F17.881555555555554
sg81
F96.560400000000001
sg82
F66342.466555999999
sg83
F0
sS'x'
F65185.724001092327
sg84
(lp335
sg101
F96.560400000000001
sg102
(lp336
S'65.258737'
p337
aS'40550'
p338
aS'1'
asg106
F1567621.5499853133
sba(i__main__
Tr
p339
(dp340
g3
F15327588.04884159
sg4
g206
sg8
I34
sg9
F25899.752356000001
sg10
F1
sg11
F0
sg12
I9223372036854775807
sg13
F10800100
sg14
I9223372036854775807
sg15
I00
sg16
F193.76291296758939
sg17
S'sig:WestRuislip:42900'
p341
sg19
F96.560400000000001
sg20
I0
sg21
I9223372036854775807
sg22
F64.373599999999996
sg23
I10
sg24
I0
sg25
I11
sg26
F0
sS'v'
F20.646514725099451
sg27
I930
sg28
I00
sg29
F-1
sg30
F74.327453010358028
sg31
g210
sg35
F26.822333333333333
sg36
F72903.101999999999
sg37
I00
sg38
I00
sg39
I00
sg40
I9223372036854775807
sg41
S'green'
p342
sg43
F0.0016273260247984236
sg44
F69.325299665205591
sg45
F272.51422933501681
sg46
F70023.02713599999
sg47
g90
sS'a'
F0.0007834981800610791
sg49
F1
sg50
F4132.3754092373729
sg51
F0
sg52
F0
sg53
I00
sg54
F272.51422933501681
sg55
I00
sg56
F0
sg57
F0.0007834981800610791
sg58
S'WestRuislip'
p343
sg60
S'MAIN17'
p344
sg62
(lp345
S'69.91375295'
p346
aS'SRL'
p347
aS'South-Ruislip'
p348
asg67
I00
sg68
I00
sg69
F0
sg70
F160.934
sg71
I92
sg72
S'WestRuislip'
p349
sg73
F0
sg74
F0
sS'm'
F249750
sg75
I0
sg76
g317
sg80
F17.881555555555554
sg81
F96.560400000000001
sg82
F69913.752950000009
sg83
F0
sS'x'
F69325.299665205588
sg84
(lp350
sg101
F96.560400000000001
sg102
(lp351
S'70.023027136'
p352
aS'SRL+100'
p353
aS'1'
asg106
F1575092.0899851408
sba(i__main__
Tr
p354
(dp355
g3
F15341106.698357891
sg4
g206
sg8
I36
sg9
F25899.752356000001
sg10
F1
sg11
F0
sg12
I9223372036854775807
sg13
F10800100
sg14
I9223372036854775807
sg15
I00
sg16
F177.74624592209858
sg17
S'sig:WestRuislip:44900'
p356
sg19
F96.560400000000001
sg20
I0
sg21
I9223372036854775807
sg22
F64.373599999999996
sg23
I10
sg24
I0
sg25
I11
sg26
F0
sS'v'
F19.774955156866433
sg27
I930
sg28
I00
sg29
F-1
sg30
F71.189838564719167
sg31
g210
sg35
F26.822333333333333
sg36
F72903.101999999999
sg37
I00
sg38
I00
sg39
I00
sg40
I9223372036854775807
sg41
S'green'
p357
sg43
F-0.0036708951186622272
sg44
F72.515825890344729
sg45
F272.51422933501681
sg46
F73305.436999999991
sg47
g90
sS'a'
F0.035956894604466577
sg49
F1
sg50
F181050.7271763217
sg51
F0
sg52
F0
sg53
I00
sg54
F272.51422933501681
sg55
I00
sg56
F0
sg57
F0.035956894604466577
sg58
S'WestRuislip'
p358
sg60
S'BRCH6'
p359
sg62
(lp360
S'74.195723888'
p361
aS'WRL'
p362
aS'West-Ruislip'
p363
asg67
I00
sg68
I00
sg69
F0
sg70
F160.934
sg71
I96
sg72
S'WestRuislip'
p364
sg73
F0
sg74
F0
sS'm'
F249750
sg75
I0
sg76
g317
sg80
F17.881555555555554
sg81
F96.560400000000001
sg82
F74195.723888000008
sg83
F0
sS'x'
F72515.825890344728
sg84
(lp365
sg101
F96.560400000000001
sg102
(lp366
S'73.305437'
p367
aS'45550'
p368
aS'1'
asg106
F1571767.0099852541
sba(i__main__
Tr
p369
(dp370
g3
F15369923.523220863
sg4
g5
sg8
I2
sg9
F25899.752356000001
sg10
F1
sg11
F0
sg12
I9223372036854775807
sg13
F10800100
sg14
I9223372036854775807
sg15
I00
sg16
F163.79755867781645
sg17
S'sig:Epping:1300'
p371
sg19
F96.560400000000001
sg20
I0
sg21
I9223372036854775807
sg22
F72.420299999999997
sg23
I11
sg24
I-1
sg25
I1
sg26
F0
sS'v'
F18.977508957781065
sg27
I930
sg28
I00
sg29
F-1
sg30
F68.319032248011837
sg31
g32
sg35
F26.822333333333333
sg36
F16093.4
sg37
I00
sg38
I00
sg39
I00
sg40
I9223372036854775807
sg41
S'green'
p372
sg43
F-0.0064609410330479485
sg44
F2.8609802153190218
sg45
F214.60495560132574
sg46
F3133.9965292000002
sg47
g90
sS'a'
F-1.1000000000000001
sg49
F1
sg50
F0
sg51
F0
sg52
F0
sg53
I00
sg54
F214.60495560132574
sg55
I01
sg56
F0
sg57
F-1.1000000000000001
sg58
S'Epping'
p373
sg60
S'MAIN19'
p374
sg62
(lp375
S'3.024674063'
p376
aS'RLG'
p377
aS'Ruislip-Gardens'
p378
asg67
I00
sg68
I00
sg69
F0
sg70
F160.934
sg71
I5
sg72
S''
sg73
F0
sg74
F0
sS'm'
F249750
sg75
I0
sg76
(lp379
S'16.0934'
p380
aS'72.4203'
p381
asg80
F20.11675
sg81
F96.560400000000001
sg82
F3024.6740629999999
sg83
F0
sS'x'
F2860.9802153190217
sg84
(lp382
sg101
F96.560400000000001
sg102
(lp383
S'3.1339965292'
p384
aS'RLG+100'
p385
aS'1'
asg106
F1574293.4899851219
sba(i__main__
Tr
p386
(dp387
g3
F15380849.492977373
sg4
g5
sg8
I7
sg9
F25899.752356000001
sg10
F1
sg11
F0
sg12
I9223372036854775807
sg13
F10800100
sg14
I9223372036854775807
sg15
I00
sg16
F0
sg17
S'sig:Epping:8000'
p388
sg19
F96.560400000000001
sg20
I0
sg21
I9223372036854775807
sg22
F72.420299999999997
sg23
I11
sg24
I-1
sg25
I1
sg26
F54010.220000000001
sS'v'
F0
sg27
I930
sg28
I01
sg29
F-1
sg30
F0
sg31
g32
sg35
F26.822333333333333
sg36
F16093.4
sg37
I00
sg38
I00
sg39
I01
sg40
I9223372036854775807
sg41
S'green'
p389
sg43
F0.0015133353548004277
sg44
F13.73859776712627
sg45
F214.60495560132574
sg46
F13847.9200848
sg47
g90
sS'a'
F0
sg49
F1
sg50
F0
sg51
F0
sg52
F0
sg53
I00
sg54
F214.60495560132574
sg55
I00
sg56
F0
sg57
F0
sg58
S'Epping'
p390
sg60
S'MAIN20'
p391
sg62
(lp392
S'16.526473394'
p393
aS'HLA'
p394
aS'Hanger-Lane'
p395
asg67
I00
sg68
I00
sg69
F0
sg70
F160.934
sg71
I16
sg72
S''
sg73
F0
sg74
F0
sS'm'
F249750
sg75
I0
sg76
g379
sg80
F20.11675
sg81
F96.560400000000001
sg82
F16526.473394000001
sg83
F0
sS'x'
F13738.59776712627
sg84
(lp396
sg101
F96.560400000000001
sg102
(lp397
S'13.8479200848'
p398
aS'PVL+100'
p399
aS'1'
asg106
F1578497.0299852297
sba(i__main__
Tr
p400
(dp401
g3
F15331800.419403896
sg4
g5
sg8
I9
sg9
F25899.752356000001
sg10
F1
sg11
F0
sg12
I9223372036854775807
sg13
F10800100
sg14
I9223372036854775807
sg15
I00
sg16
F38.683928515342721
sg17
S'sig:Epping:11800'
p402
sg19
F88.5137
sg20
I0
sg21
I9223372036854775807
sg22
F40.233499999999999
sg23
I11
sg24
I-1
sg25
I3
sg26
F0
sS'v'
F9.2284976977188258
sg27
I930
sg28
I00
sg29
F-1
sg30
F33.222591711787771
sg31
g32
sg35
F24.587138888888887
sg36
F22530.760000000002
sg37
I00
sg38
I00
sg39
I00
sg40
I9223372036854775807
sg41
S'green'
p403
sg43
F0.0024593489030367709
sg44
F19.467223978538378
sg45
F327.01707520202007
sg46
F19532.881448
sg47
g90
sS'a'
F0.65598738838039439
sg49
F1
sg50
F1536536.7856269949
sg51
F0
sg52
F0
sg53
I00
sg54
F327.01707520202007
sg55
I00
sg56
F0
sg57
F0.65598738838039439
sg58
S'Epping'
p404
sg60
S'MAIN21'
p405
sg62
(lp406
S'21.518967942'
p407
aS'EAC'
p408
aS'East-Acton'
p409
asg67
I00
sg68
I00
sg69
F0
sg70
F160.934
sg71
I23
sg72
S''
sg73
F0
sg74
F0
sS'm'
F249750
sg75
I0
sg76
(lp410
S'22.53076'
p411
aS'40.2335'
p412
asg80
F11.175972222222223
sg81
F88.5137
sg82
F21518.967941999999
sg83
F0
sS'x'
F19467.223978538379
sg84
(lp413
sg101
F88.5137
sg102
(lp414
S'19.532881448'
p415
aS'NAC+100'
p416
aS'1'
asg106
F1573377.5199853759
sba(i__main__
Tr
p417
(dp418
g3
F15270304.190068888
sg4
g5
sg8
I22
sg9
F25899.752356000001
sg10
F1
sg11
F0
sg12
I9223372036854775807
sg13
F10800100
sg14
I9223372036854775807
sg15
I00
sg16
F80.221992113210248
sg17
S'sig:Epping:CHL+100'
p419
sg19
F64.373599999999996
sg20
I0
sg21
I9223372036854775807
sg22
F24.1401
sg23
I10
sg24
I-1
sg25
I5
sg26
F0
sS'v'
F13.286612248781944
sg27
I930
sg28
I00
sg29
F-1
sg30
F47.831804095614999
sg31
g32
sg35
F17.881555555555554
sg36
F35003.145000000004
sg37
I00
sg38
I00
sg39
I00
sg40
I9223372036854775807
sg41
S'green'
p420
sg43
F0.0013127466778710619
sg44
F33.815310885082873
sg45
F187.35353266782403
sg46
F34359.409
sg47
g90
sS'a'
F0.34384503212361056
sg49
F1
sg50
F1159838.2615917183
sg51
F0
sg52
F0
sg53
I00
sg54
F187.35353266782403
sg55
I00
sg56
F0
sg57
F0.34384503212361056
sg58
S'Epping'
p421
sg60
S'BRCH1'
p422
sg62
(lp423
S'34.893066144'
p424
aS'SPA'
p425
aS'Saint-Pauls'
p426
asg67
I00
sg68
I00
sg69
F0
sg70
F160.934
sg71
I44
sg72
S''
sg73
F0
sg74
F0
sS'm'
F249750
sg75
I0
sg76
g97
sg80
F6.7055833333333332
sg81
F64.373599999999996
sg82
F34893.066144000004
sg83
F0
sS'x'
F33815.310885082872
sg84
(lp427
sg101
F64.373599999999996
sg102
(lp428
S'34.359409'
p429
aS'21350'
p430
aS'1'
asg106
F1593094.4699846532
sba(i__main__
Tr
p431
(dp432
g3
F15290277.308982635
sg4
g206
sg8
I12
sg9
F25899.752356000001
sg10
F1
sg11
F0
sg12
I9223372036854775807
sg13
F10800100
sg14
I9223372036854775807
sg15
I00
sg16
F184.07491426455678
sg17
S'sig:WestRuislip:20900'
p433
sg19
F80.466999999999999
sg20
I0
sg21
I9223372036854775807
sg22
F64.373599999999996
sg23
I10
sg24
I-1
sg25
I3
sg26
F0
sS'v'
F20.123846472744724
sg27
I930
sg28
I00
sg29
F-1
sg30
F72.445847301881003
sg31
g210
sg35
F22.351944444444445
sg36
F34118.008000000002
sg37
I00
sg38
I00
sg39
I00
sg40
I9223372036854775807
sg41
S'green'
p434
sg43
F0.00073800080746489036
sg44
F33.933312648292898
sg45
F122.63140320075763
sg125
F1774.1500000000001
sg46
F34520.342999999993
sg47
g90
sS'a'
F0.021792496052471105
sg49
F1
sg50
F111692.09030781481
sg51
F0
sg52
F0
sg53
I00
sg54
F122.63140320075763
sg55
I00
sg56
F0
sg57
F0.021792496052471105
sg58
S'WestRuislip'
p435
sg60
S'BRCH2'
p436
sg62
(lp437
S'35.11177545'
p438
aS'BTH'
p439
aS'Bethnal-Green'
p440
asg67
I00
sg68
I00
sg69
F0
sg70
F160.934
sg71
I44
sg72
S''
sg73
F0
sg74
F0
sS'm'
F249750
sg75
I0
sg76
g251
sg80
F17.881555555555554
sg81
F80.466999999999999
sg82
F35111.775450000001
sg83
F0
sS'x'
F33933.3126482929
sg84
(lp441
sg101
F80.466999999999999
sg102
(lp442
S'34.520343'
p443
aS'21450'
p444
aS'1'
asg106
F1576023.7899852241
sba(i__main__
Tr
p445
(dp446
g3
F15257994.413345285
sg4
g206
sg8
I30
sg9
F25899.752356000001
sg10
F1
sg11
F0
sg12
I9223372036854775807
sg13
F10800100
sg14
I9223372036854775807
sg15
I00
sg16
F193.29333529010879
sg17
S'sig:WestRuislip:35500'
p447
sg19
F96.560400000000001
sg20
I0
sg21
I9223372036854775807
sg22
F64.373599999999996
sg23
I10
sg24
I0
sg25
I11
sg26
F0
sS'v'
F20.621486502697572
sg27
I930
sg28
I00
sg29
F-1
sg30
F74.237351409711266
sg31
g210
sg35
F26.822333333333333
sg36
F72903.101999999999
sg37
I00
sg38
I00
sg39
I00
sg40
I9223372036854775807
sg41
S'green'
p448
sg43
F0.0029687202884651526
sg44
F57.628005982615278
sg45
F272.51422933501681
sg46
F58070.137088000003
sg47
g90
sS'a'
F0.0017842689384762371
sg49
F1
sg50
F9384.2982939597605
sg51
F0
sg52
F0
sg53
I00
sg54
F272.51422933501681
sg55
I00
sg56
F0
sg57
F0.0017842689384762371
sg58
S'WestRuislip'
p449
sg60
S'BRCH3'
p450
sg62
(lp451
S'57.960862902'
p452
aS'HLA'
p453
aS'Hanger-Lane'
p454
asg67
I00
sg68
I00
sg69
F0
sg70
F160.934
sg71
I77
sg72
S'WestRuislip'
p455
sg73
F0
sg74
F0
sS'm'
F249750
sg75
I0
sg76
g317
sg80
F17.881555555555554
sg81
F96.560400000000001
sg82
F57960.862902000001
sg83
F0
sS'x'
F57628.005982615279
sg84
(lp456
sg101
F96.560400000000001
sg102
(lp457
S'58.070137088'
p458
aS'HLA+100'
p459
aS'1'
asg106
F1591076.1899847116
sba(i__main__
Tr
p460
(dp461
g3
F15323984.050643226
sg4
g5
sg8
I31
sg9
F25899.752356000001
sg10
F1
sg11
F0
sg12
I9223372036854775807
sg13
F10800100
sg14
I9223372036854775807
sg15
I00
sg16
F76.368939633891657
sg17
S'sig:Epping:33000'
p462
sg19
F96.560400000000001
sg20
I0
sg21
I9223372036854775807
sg22
F40.233499999999999
sg23
I10
sg24
I0
sg25
I10
sg26
F0
sS'v'
F12.956431460803273
sg27
I930
sg28
I00
sg29
F-1
sg30
F46.643153258891786
sg31
g32
sg35
F26.822333333333333
sg36
F73707.772000000012
sg37
I00
sg38
I00
sg39
I00
sg40
I9223372036854775807
sg41
S'green'
p463
sg43
F-0.0010163392224428779
sg44
F53.912374786114654
sg45
F405.36491613583757
sg46
F54097.964099999997
sg47
g90
sS'a'
F-1.1000000000000001
sg49
F1
sg50
F0
sg51
F0
sg52
F0
sg53
I00
sg54
F405.36491613583757
sg55
I01
sg56
F0
sg57
F-1.1000000000000001
sg58
S'Epping'
p464
sg60
S'BRCH4'
p465
sg62
(lp466
S'53.988689914'
p467
aS'SWO'
p468
aS'South-Woodford'
p469
asg67
I00
sg68
I00
sg69
F0
sg70
F160.934
sg71
I69
sg72
S'Epping'
p470
sg73
F0
sg74
F0
sS'm'
F249750
sg75
I0
sg76
g182
sg80
F11.175972222222223
sg81
F96.560400000000001
sg82
F53988.689913999995
sg83
F0
sS'x'
F53912.374786114655
sg84
(lp471
sg101
F96.560400000000001
sg102
(lp472
S'54.0979641'
p473
aS'SWO+100'
p474
aS'1'
asg106
F1577431.0199851163
sbasg101
F40.233499999999999
sg102
(lp475
S'23.094029'
p476
aS'14350'
p477
aS'1'
asg106
F1570201.2699853182
sb.