(i__main__
Tr
p1
(dp2
S'mechWear'
p3
F15754724.496113874
sS'nextGRD'
p4
(lp5
S'0.0'
p6
aS'0.0'
p7
asS'STAcnt'
p8
I27
sS'maxSquareSpeed'
p9
F25899.752356000001
sS'consumptionCutOff'
p10
F1
sS'grade'
p11
F0
sS'nGRDx'
p12
I9223372036854775807
sS'admissionWear'
p13
F11160100
sS'transitionGRDx'
p14
I9223372036854775807
sS'coasting'
p15
I00
sS'BDzero'
p16
F192.13549248510995
sS'redisSIG'
p17
S'sig:Epping:27200'
p18
sS'maxTIV'
p19
F80.466999999999999
sS'CRVcnt'
p20
I0
sS'nCRVx'
p21
I9223372036854775807
sS'nTIVvl'
p22
F64.373599999999996
sS'trip'
p23
I10
sS'pathCnt'
p24
I-1
sS'TIVcnt'
p25
I8
sS'waitSta'
p26
F0
sS'v'
F20.559643945183492
sS'pax'
p27
I930
sS'startingPhase'
p28
I00
sS'advTIV'
p29
F-1
sS'vK'
p30
F74.014718202660575
sS'nextCRV'
p31
(lp32
S'0.0'
p33
aS'0.0'
p34
asS'cv'
p35
F22.351944444444445
sS'nTIVx'
p36
F46670.860000000001
sS'sigBrake'
p37
I00
sS'sigSpotted'
p38
I00
sS'inSta'
p39
I00
sS'transitionCRVx'
p40
I9223372036854775807
sS'advSIGcol'
p41
S'green'
p42
sS'aGaussFactor'
p43
F0.00036364197531994601
sS'PK'
p44
F43.963670625507106
sS'deltaBDtiv'
p45
F122.63140320075763
sS'nSIGx'
p46
F44900.585999999996
sS'nTIVtype'
p47
S'DEC'
p48
sS'a'
F0.0042592465807218208
sS'ratioGRD'
p49
F1
sS'power'
p50
F22317.294253070915
sS'gradient'
p51
F0
sS'BDsta'
p52
F0
sS'initSwitchSeg'
p53
I00
sS'BDtiv'
p54
F122.63140320075763
sS'staBrake'
p55
I00
sS'waitReact'
p56
F0
sS'aFull'
p57
F0.0042592465807218208
sS'segment'
p58
S'Epping'
p59
sS'name'
p60
S'MAIN1'
p61
sS'nextSTA'
p62
(lp63
S'45.515997616'
p64
aS'STR'
p65
aS'Stratford'
p66
aS'X'
asS'react'
p67
I00
sS'atSig'
p68
I00
sS'deltaBDsta'
p69
F0
sS'tgtVk'
p70
F160.934
sS'SIGcnt'
p71
I57
sS'pathBranch'
p72
S''
sS'oldGradient'
p73
F0
sS'critVk'
p74
F0
sS'm'
F249750
sS'GRDcnt'
p75
I0
sS'nextTIV'
p76
(lp77
S'46.67086'
p78
aS'64.3736'
p79
asS'nv'
p80
F17.881555555555554
sS'maxVk'
p81
F80.466999999999999
sS'nSTAx'
p82
F45515.997616000001
sS'DBrt'
p83
F0
sS'x'
F43963.670625507104
sS'trs'
p84
(lp85
(i__main__
Tr
p86
(dp87
g3
F15743862.168056149
sg4
g5
sg8
I29
sg9
F25899.752356000001
sg10
F1
sg11
F0
sg12
I9223372036854775807
sg13
F11160100
sg14
I9223372036854775807
sg15
I00
sg16
F0
sg17
S'sig:Epping:29200'
p88
sg19
F64.373599999999996
sg20
I0
sg21
I9223372036854775807
sg22
F96.560400000000001
sg23
I10
sg24
I-1
sg25
I9
sg26
F55800.885000000002
sS'v'
F0
sg27
I930
sg28
I01
sg29
F-1
sg30
F0
sg31
g32
sg35
F22.351944444444445
sg36
F49889.539999999994
sg37
I00
sg38
I00
sg39
I01
sg40
I9223372036854775807
sg41
S'green'
p89
sg43
F-0.0029745907910586644
sg44
F47.684262369359139
sg45
F0
sg46
F47702.446940000002
sg47
S'INC'
p90
sS'a'
F0
sg49
F1
sg50
F0
sg51
F0
sg52
F0
sg53
I00
sg54
F122.63140320075763
sg55
I00
sg56
F0
sg57
F0
sg58
S'Epping'
p91
sg60
S'MAIN14'
p92
sg62
(lp93
S'49.779622078'
p94
aS'LYS'
p95
aS'Leytonstone'
p96
asg67
I00
sg68
I00
sg69
F0
sg70
F160.934
sg71
I61
sg72
S''
sg73
F0
sg74
F0
sS'm'
F249750
sg75
I0
sg76
(lp97
S'49.88954'
p98
aS'96.5604'
p99
asg80
F17.881555555555554
sg81
F64.373599999999996
sg82
F49779.622078
sg83
F0
sS'x'
F47684.262369359138
sg84
(lp100
sS'cTIVvl'
p101
F64.373599999999996
sS'nextSIG'
p102
(lp103
S'47.70244694'
p104
aS'LEY+100'
p105
aS'1'
asS'brakeWear'
p106
F1632054.0499838397
sba(i__main__
Tr
p107
(dp108
g3
F15748738.596567282
sg4
g5
sg8
I30
sg9
F25899.752356000001
sg10
F1
sg11
F0
sg12
I9223372036854775807
sg13
F11160100
sg14
I9223372036854775807
sg15
I00
sg16
F189.86806347842548
sg17
S'sig:Epping:31900'
p109
sg19
F96.560400000000001
sg20
I0
sg21
I9223372036854775807
sg22
F40.233499999999999
sg23
I10
sg24
I0
sg25
I10
sg26
F0
sS'v'
F20.437994203334551
sg27
I930
sg28
I00
sg29
F-1
sg30
F73.57677913200439
sg31
g32
sg35
F26.822333333333333
sg36
F73707.772000000012
sg37
I00
sg38
I00
sg39
I00
sg40
I9223372036854775807
sg41
S'green'
p110
sg43
F0.00035904761495512977
sg44
F51.499386282655024
sg45
F405.36491613583757
sg46
F52166.595165999999
sg47
g48
sS'a'
F0.0091369293345828616
sg49
F1
sg50
F47575.254778797484
sg51
F0
sg52
F0
sg53
I00
sg54
F405.36491613583757
sg55
I00
sg56
F0
sg57
F0.0091369293345828616
sg58
S'Epping'
p111
sg60
S'MAIN2'
p112
sg62
(lp113
S'52.05732098'
p114
aS'SNR'
p115
aS'Snaresbrook'
p116
asg67
I00
sg68
I00
sg69
F0
sg70
F160.934
sg71
I67
sg72
S'Epping'
p117
sg73
F0
sg74
F0
sS'm'
F249750
sg75
I0
sg76
(lp118
S'73.707772'
p119
aS'40.2335'
p120
asg80
F11.175972222222223
sg81
F96.560400000000001
sg82
F52057.320979999997
sg83
F0
sS'x'
F51499.386282655025
sg84
(lp121
sg101
F96.560400000000001
sg102
(lp122
S'52.166595166'
p123
aS'SNR+100'
p124
aS'1'
asg106
F1631965.7199838047
sba(i__main__
Tr
p125
(dp126
g3
F15716262.578032034
sg4
g5
sg8
I32
sg9
F25899.752356000001
sg10
F1
sg11
F0
sg12
I9223372036854775807
sg13
F11160100
sg14
I9223372036854775807
sg15
I00
sg16
F187.08485449377176
sg17
S'sig:Epping:34000'
p127
sg19
F96.560400000000001
sg20
I0
sg21
I9223372036854775807
sg22
F40.233499999999999
sg23
I10
sg24
I0
sg25
I10
sg26
F0
sS'v'
F20.287675073095478
sg27
I930
sg28
I00
sg29
F-1
sg30
F73.03563026314373
sg31
g32
sg35
F26.822333333333333
sg36
F73707.772000000012
sg37
I00
sg38
I00
sg39
I00
sg40
I9223372036854775807
sg41
S'green'
p128
sg43
F-0.00037199352346481451
sg44
F55.451192066387804
sg45
F405.36491613583757
sS'sigPoll'
p129
F245.72999999999999
sg46
F55844.098000000005
sg47
g48
sS'a'
F0.015181586616795036
sg49
F1
sg50
F78453.65094447638
sg51
F0
sg52
F0
sg53
I00
sg54
F405.36491613583757
sg55
I00
sg56
F0
sg57
F0.015181586616795036
sg58
S'Epping'
p130
sg60
S'MAIN15'
p131
sg62
(lp132
S'56.448566104'
p133
aS'WOO'
p134
aS'Woodford'
p135
asg67
I00
sg68
I00
sg69
F0
sg70
F160.934
sg71
I71
sg72
S'Epping'
p136
sg73
F0
sg74
F0
sS'm'
F249750
sg75
I0
sg76
g118
sg80
F11.175972222222223
sg81
F96.560400000000001
sg82
F56448.566103999998
sg83
F0
sS'x'
F55451.192066387805
sg84
(lp137
sg101
F96.560400000000001
sg102
(lp138
S'55.844098'
p139
aS'34700'
p140
aS'1'
asg106
F1628946.7699839105
sba(i__main__
Tr
p141
(dp142
g3
F15827769.360473922
sg4
g5
sg8
I37
sg9
F25899.752356000001
sg10
F1
sg11
F0
sg12
I9223372036854775807
sg13
F11160100
sg14
I9223372036854775807
sg15
I00
sg16
F190.90626218889864
sg17
S'sig:Epping:44000'
p143
sg19
F96.560400000000001
sg20
I0
sg21
I9223372036854775807
sg22
F40.233499999999999
sg23
I10
sg24
I0
sg25
I10
sg26
F0
sS'v'
F20.493784193374285
sg27
I930
sg28
I00
sg29
F-1
sg30
F73.777623096147423
sg31
g32
sg35
F26.822333333333333
sg36
F73707.772000000012
sg37
I00
sg38
I00
sg39
I00
sg40
I9223372036854775807
sg41
S'green'
p144
sg43
F-0.00014769192653822527
sg44
F70.993463489490793
sg45
F405.36491613583757
sg46
F71615.62999999999
sg47
g48
sS'a'
F0.0068984341645367802
sg49
F1
sg50
F36021.615758892178
sg51
F0
sg52
F0
sg53
I00
sg54
F405.36491613583757
sg55
I00
sg56
F0
sg57
F0.0068984341645367802
sg58
S'Epping'
p145
sg60
S'MAIN3'
p146
sg62
(lp147
S'74.031732142'
p148
aS'EPP'
p149
aS'Epping'
p150
asg67
I00
sg68
I00
sg69
F0
sg70
F160.934
sg71
I90
sg72
S'Epping'
p151
sg73
F0
sg74
F0
sS'm'
F249750
sg75
I0
sg76
g118
sg80
F11.175972222222223
sg81
F96.560400000000001
sg82
F74031.732141999993
sg83
F0
sS'x'
F70993.463489490794
sg84
(lp152
sg101
F96.560400000000001
sg102
(lp153
S'71.61563'
p154
aS'44500'
p155
aS'1'
asg106
F1637439.7599835894
sba(i__main__
Tr
p156
(dp157
g3
F15858069.191389661
sg4
(lp158
S'0.0'
p159
aS'0.0'
p160
asg8
I1
sg9
F25899.752356000001
sg10
F1
sg11
F0
sg12
I9223372036854775807
sg13
F11160100
sg14
I9223372036854775807
sg15
I00
sg16
F194.02693772883129
sg17
S'sig:WestRuislip:2450'
p161
sg19
F96.560400000000001
sg20
I0
sg21
I9223372036854775807
sg22
F72.420299999999997
sg23
I11
sg24
I-1
sg25
I1
sg26
F0
sS'v'
F20.660573776595104
sg27
I930
sg28
I00
sg29
F-1
sg30
F74.37806559574237
sg31
(lp162
S'0.0'
p163
aS'0.0'
p164
asg35
F26.822333333333333
sg36
F24140.099999999999
sg37
I00
sg38
I00
sg39
I00
sg40
I9223372036854775807
sg41
S'green'
p165
sg43
F-0.0048178965631113799
sg44
F4.1093782213647305
sg45
F214.60495560132574
sg46
F4667.0860000000002
sg47
g48
sS'a'
F0.00022155581058686658
sg49
F1
sg50
F1177.7103844727355
sg51
F0
sg52
F0
sg53
I00
sg54
F214.60495560132574
sg55
I00
sg56
F0
sg57
F0.00022155581058686658
sg58
S'WestRuislip'
p166
sg60
S'BRCH7'
p167
sg62
(lp168
S'5.3751795066'
p169
aS'THB'
p170
aS'Theydon-Bois'
p171
asg67
I00
sg68
I00
sg69
F0
sg70
F160.934
sg71
I7
sg72
S''
sg73
F0
sg74
F0
sS'm'
F249750
sg75
I0
sg76
(lp172
S'24.1401'
p173
aS'72.4203'
p174
asg80
F20.11675
sg81
F96.560400000000001
sg82
F5375.1795066000004
sg83
F0
sS'x'
F4109.378221364731
sg84
(lp175
sg101
F96.560400000000001
sg102
(lp176
S'4.667086'
p177
aS'2900'
p178
aS'1'
asg106
F1624323.3599840505
sba(i__main__
Tr
p179
(dp180
g3
F15962314.293956382
sg4
g158
sg8
I6
sg9
F25899.752356000001
sg10
F1
sg11
F0
sg12
I9223372036854775807
sg13
F11160100
sg14
I9223372036854775807
sg15
I00
sg16
F177.00618515768619
sg17
S'sig:WestRuislip:11850'
p181
sg19
F96.560400000000001
sg20
I0
sg21
I9223372036854775807
sg22
F72.420299999999997
sg23
I11
sg24
I-1
sg25
I1
sg26
F0
sS'v'
F19.733753688879744
sg27
I930
sg28
I00
sg29
F-1
sg30
F71.041513279967077
sg31
g162
sg35
F26.822333333333333
sg36
F24140.099999999999
sg37
I00
sg38
I01
sg39
I00
sg40
I9223372036854775807
sg41
S'green'
p182
sg43
F0.0017599680883027893
sg44
F19.069888531834025
sg45
F214.60495560132574
sg46
F19070.679
sg47
g48
sS'a'
F0.037637755073483305
sg49
F1
sg50
F189114.53510086093
sg51
F0
sg52
F0
sg53
I00
sg54
F214.60495560132574
sg55
I00
sg56
F0
sg57
F0.037637755073483305
sg58
S'WestRuislip'
p183
sg60
S'BRCH8'
p184
sg62
(lp185
S'20.516831924'
p186
aS'SWO'
p187
aS'South-Woodford'
p188
asg67
I00
sg68
I00
sg69
F0
sg70
F160.934
sg71
I25
sg72
S''
sg73
F0
sg74
F0
sS'm'
F249750
sg75
I0
sg76
g172
sg80
F20.11675
sg81
F96.560400000000001
sg82
F20516.831924000002
sg83
F0
sS'x'
F19069.888531834025
sg84
(lp189
sg101
F96.560400000000001
sg102
(lp190
S'19.070679'
p191
aS'11850'
p192
aS'1'
asg106
F1614795.8199843499
sba(i__main__
Tr
p193
(dp194
g3
F15952989.495533809
sg4
g158
sg8
I10
sg9
F25899.752356000001
sg10
F1
sg11
F0
sg12
I9223372036854775807
sg13
F11160100
sg14
I9223372036854775807
sg15
I00
sg16
F0
sg17
S'sig:WestRuislip:Truce'
p195
sg19
F72.420299999999997
sg20
I0
sg21
I9223372036854775807
sg22
F80.466999999999999
sg23
I11
sg24
I-1
sg25
I2
sg26
F55806.175000000003
sS'v'
F0
sg27
I930
sg28
I01
sg29
F-1
sg30
F0
sg31
g162
sg35
F26.822333333333333
sg36
F27358.779999999999
sg37
I00
sg38
I00
sg39
I01
sg40
I9223372036854775807
sg41
S'green'
p196
sg43
F0.00079177091360801912
sg44
F26.803074976875664
sg45
F0
sg46
F26912.349083999998
sg47
g90
sS'a'
F0
sg49
F1
sg50
F0
sg51
F0
sg52
F0
sg53
I00
sg54
F214.60495560132574
sg55
I00
sg56
F0
sg57
F0
sg58
S'WestRuislip'
p197
sg60
S'MAIN7'
p198
sg62
(lp199
S'28.989524222'
p200
aS'STR'
p201
aS'Stratford'
p202
aS'X'
asg67
I00
sg68
I00
sg69
F0
sg70
F160.934
sg71
I35
sg72
S''
sg73
F0
sg74
F0
sS'm'
F249750
sg75
I0
sg76
(lp203
S'27.35878'
p204
aS'80.467'
p205
asg80
F20.11675
sg81
F72.420299999999997
sg82
F28989.524222
sg83
F0
sS'x'
F26803.074976875665
sg84
(lp206
sg101
F72.420299999999997
sg102
(lp207
S'26.912349084'
p208
aS'LEY+100'
p209
aS'1'
asg106
F1619260.7199842252
sba(i__main__
Tr
p210
(dp211
g3
F15958813.574190004
sg4
g158
sg8
I14
sg9
F25899.752356000001
sg10
F1
sg11
F0
sg12
I9223372036854775807
sg13
F11160100
sg14
I9223372036854775807
sg15
I01
sg16
F20.412710422389559
sg17
S'sig:WestRuislip:LIV+100'
p212
sg19
F24.1401
sg20
I0
sg21
I9223372036854775807
sg22
F48.280200000000001
sg23
I11
sg24
I-1
sg25
I5
sg26
F0
sS'v'
F6.7013403830321163
sg27
I930
sg28
I00
sg29
F-1
sg30
F24.12482537891562
sg31
g162
sg35
F17.881555555555554
sg36
F39106.962
sg37
I00
sg38
I00
sg39
I00
sg40
I9223372036854775807
sg41
S'green'
p213
sg43
F0.0030598267048840277
sg44
F38.573540196030763
sg45
F0
sg46
F38938.142233999999
sg47
g90
sS'a'
F0
sg49
F1
sg50
F1.8683085574252887
sg51
F0
sg52
F0
sg53
I00
sg54
F187.35353266782403
sg55
I00
sg56
F0
sg57
F0
sg58
S'WestRuislip'
p214
sg60
S'MAIN8'
p215
sg62
(lp216
S'38.828868048'
p217
aS'BNK'
p218
aS'Bank'
p219
aS'X'
asg67
I00
sg68
I00
sg69
F0
sg70
F160.934
sg71
I50
sg72
S''
sg73
F0
sg74
F0
sS'm'
F249750
sg75
I0
sg76
(lp220
S'39.106962'
p221
aS'48.2802'
p222
asg80
F6.7055833333333332
sg81
F24.1401
sg82
F38828.868047999997
sg83
F0
sS'x'
F38573.540196030764
sg84
(lp223
sg101
F24.1401
sg102
(lp224
S'38.938142234'
p225
aS'BNK+100'
p226
aS'1'
asg106
F1615790.4399843961
sba(i__main__
Tr
p227
(dp228
g3
F15871320.980793007
sg4
g158
sg8
I21
sg9
F25899.752356000001
sg10
F1
sg11
F0
sg12
I9223372036854775807
sg13
F11160100
sg14
I9223372036854775807
sg15
I00
sg16
F68.153274329027354
sg17
S'sig:WestRuislip:BST+100'
p229
sg19
F64.373599999999996
sg20
I0
sg21
I9223372036854775807
sg22
F40.233499999999999
sg23
I11
sg24
I-1
sg25
I7
sg26
F0
sS'v'
F12.246928101774317
sg27
I930
sg28
I00
sg29
F-1
sg30
F44.088941166387542
sg31
g162
sg35
F17.881555555555554
sg36
F49889.539999999994
sg37
I00
sg38
I01
sg39
I00
sg40
I9223372036854775807
sg41
S'green'
p230
sg43
F0.001147331921659457
sg44
F44.25680272392222
sg45
F132.85068680082065
sg46
F44258.620274000001
sg47
g48
sS'a'
F0.40866232638770639
sg49
F1
sg50
F1270288.5585133468
sg51
F0
sg52
F0
sg53
I00
sg54
F132.85068680082065
sg55
I00
sg56
F0
sg57
F0.40866232638770639
sg58
S'WestRuislip'
p231
sg60
S'MAIN9'
p232
sg62
(lp233
S'44.860030632'
p234
aS'MBL'
p235
aS'Marble-Arch'
p236
asg67
I00
sg68
I00
sg69
F0
sg70
F160.934
sg71
I58
sg72
S''
sg73
F0
sg74
F0
sS'm'
F249750
sg75
I0
sg76
(lp237
S'49.88954'
p238
aS'40.2335'
p239
asg80
F11.175972222222223
sg81
F64.373599999999996
sg82
F44860.030631999995
sg83
F0
sS'x'
F44256.802723922221
sg84
(lp240
sg101
F64.373599999999996
sg102
(lp241
S'44.258620274'
p242
aS'BST+100'
p243
aS'1'
asg106
F1625791.0899841946
sba(i__main__
Tr
p244
(dp245
g3
F15790264.200813061
sg4
g158
sg8
I28
sg9
F25899.752356000001
sg10
F1
sg11
F0
sg12
I9223372036854775807
sg13
F11160100
sg14
I9223372036854775807
sg15
I00
sg16
F7.1694601136362692
sg17
S'sig:WestRuislip:31150'
p246
sg19
F40.233499999999999
sg20
I0
sg21
I9223372036854775807
sg22
F80.466999999999999
sg23
I10
sg24
I-1
sg25
I8
sg26
F0
sS'v'
F3.977999999999974
sg27
I930
sg28
I00
sg29
F-1
sg30
F14.320799999999906
sg31
g162
sg35
F17.881555555555554
sg36
F51659.813999999998
sg37
I00
sg38
I00
sg39
I00
sg40
I9223372036854775807
sg41
S'green'
p247
sg43
F0.0013073854688972178
sg44
F50.787855094145463
sg45
F0
sg46
F50891.032282
sg47
g90
sS'a'
F1.3
sg49
F1
sg50
F1082629.6328739747
sg51
F0
sg52
F0
sg53
I00
sg54
F132.85068680082065
sg55
I00
sg56
F0
sg57
F1.3
sg58
S'WestRuislip'
p248
sg60
S'MAIN11'
p249
sg62
(lp250
S'52.968368354'
p251
aS'EAC'
p252
aS'East-Acton'
p253
asg67
I00
sg68
I00
sg69
F0
sg70
F160.934
sg71
I68
sg72
S''
sg73
F0
sg74
F0
sS'm'
F249750
sg75
I0
sg76
(lp254
S'51.659814'
p255
aS'80.467'
p256
asg80
F11.175972222222223
sg81
F40.233499999999999
sg82
F52968.368353999998
sg83
F0
sS'x'
F50787.855094145467
sg84
(lp257
sg101
F40.233499999999999
sg102
(lp258
S'50.891032282'
p259
aS'WCI+100'
p260
aS'1'
asg106
F1637695.0699838256
sba(i__main__
Tr
p261
(dp262
g3
F15783884.915219802
sg4
g158
sg8
I31
sg9
F25899.752356000001
sg10
F1
sg11
F0
sg12
I9223372036854775807
sg13
F11160100
sg14
I9223372036854775807
sg15
I00
sg16
F67.674720081587793
sg17
S'sig:WestRuislip:HLA+100'
p263
sg19
F96.560400000000001
sg20
I0
sg21
I9223372036854775807
sg22
F64.373599999999996
sg23
I10
sg24
I0
sg25
I11
sg26
F0
sS'v'
F12.203876441231914
sg27
I930
sg28
I00
sg29
F-1
sg30
F43.933955188434894
sg31
g162
sg35
F26.822333333333333
sg36
F72903.101999999999
sg37
I00
sg38
I01
sg39
I00
sg40
I9223372036854775807
sg41
S'green'
p264
sg43
F-0.0024725249555245703
sg44
F58.067035570015001
sg45
F272.51422933501681
sg46
F58070.137088000003
sg47
g48
sS'a'
F0.41151061409585682
sg49
F1
sg50
F1274634.9540641059
sg51
F0
sg52
F0
sg53
I00
sg54
F272.51422933501681
sg55
I00
sg56
F0
sg57
F0.41151061409585682
sg58
S'WestRuislip'
p265
sg60
S'MAIN18'
p266
sg62
(lp267
S'60.766908126'
p268
aS'PVL'
p269
aS'Perivale'
p270
asg67
I00
sg68
I00
sg69
F0
sg70
F160.934
sg71
I77
sg72
S'WestRuislip'
p271
sg73
F0
sg74
F0
sS'm'
F249750
sg75
I0
sg76
(lp272
S'72.903102'
p273
aS'64.3736'
p274
asg80
F17.881555555555554
sg81
F96.560400000000001
sg82
F60766.908125999995
sg83
F0
sS'x'
F58067.035570015003
sg84
(lp275
sg101
F96.560400000000001
sg102
(lp276
S'58.070137088'
p277
aS'HLA+100'
p278
aS'1'
asg106
F1641926.4399835011
sba(i__main__
Tr
p279
(dp280
g3
F15791082.950294008
sg4
g158
sg8
I33
sg9
F25899.752356000001
sg10
F1
sg11
F0
sg12
I9223372036854775807
sg13
F11160100
sg14
I9223372036854775807
sg15
I00
sg16
F98.798491812622387
sg17
S'sig:WestRuislip:GRF+100'
p281
sg19
F96.560400000000001
sg20
I0
sg21
I9223372036854775807
sg22
F64.373599999999996
sg23
I10
sg24
I0
sg25
I11
sg26
F0
sS'v'
F14.74433778368423
sg27
I930
sg28
I00
sg29
F-1
sg30
F53.079616021263227
sg31
g162
sg35
F26.822333333333333
sg36
F72903.101999999999
sg37
I00
sg38
I00
sg39
I00
sg40
I9223372036854775807
sg41
S'green'
p282
sg43
F0.00042657348672473563
sg44
F63.510520515660993
sg45
F272.51422933501681
sg46
F64373.599999999999
sg47
g48
sS'a'
F0.26326325988479671
sg49
F1
sg50
F985935.06202188949
sg51
F0
sg52
F0
sg53
I00
sg54
F272.51422933501681
sg55
I00
sg56
F0
sg57
F0.26326325988479671
sg58
S'WestRuislip'
p283
sg60
S'MAIN12'
p284
sg62
(lp285
S'66.342466556'
p286
aS'NHO'
p287
aS'Northolt'
p288
asg67
I00
sg68
I00
sg69
F0
sg70
F160.934
sg71
I85
sg72
S'WestRuislip'
p289
sg73
F0
sg74
F0
sS'm'
F249750
sg75
I0
sg76
g272
sg80
F17.881555555555554
sg81
F96.560400000000001
sg82
F66342.466555999999
sg83
F0
sS'x'
F63510.520515660995
sg84
(lp290
sg101
F96.560400000000001
sg102
(lp291
S'64.3736'
p292
aS'40000'
p293
aS'1'
asg106
F1641951.8499836591
sba(i__main__
Tr
p294
(dp295
g3
F15786740.962210102
sg4
g158
sg8
I36
sg9
F25899.752356000001
sg10
F1
sg11
F0
sg12
I9223372036854775807
sg13
F11160100
sg14
I9223372036854775807
sg15
I00
sg16
F30.02139707686754
sg17
S'sig:WestRuislip:WRL-200'
p296
sg19
F32.186799999999998
sg20
I0
sg21
I9223372036854775807
sg22
F32.186799999999998
sg23
I10
sg24
I0
sg25
I12
sg26
F0
sS'v'
F8.1308504326475131
sg27
I930
sg28
I00
sg29
F-1
sg30
F29.271061557531048
sg31
g162
sg35
F17.881555555555554
sg36
I9223372036854775807
sg37
I00
sg38
I00
sg39
I00
sg40
I9223372036854775807
sg41
S'green'
p297
sg43
F0.001990539652361175
sg44
F74.225989599070829
sg45
F163.50853760101006
sg46
F74304.998074000003
sg47
g48
sS'a'
F0.78307330331591751
sg49
F1
sg50
F1616826.1365754136
sg51
F0
sg52
F0
sg53
I00
sg54
F163.50853760101006
sg55
I00
sg56
F0
sg57
F0.78307330331591751
sg58
S'WestRuislip'
p298
sg60
S'MAIN13'
p299
sg62
(lp300
S'74.195723888'
p301
aS'WRL'
p302
aS'West-Ruislip'
p303
asg67
I00
sg68
I00
sg69
F0
sg70
F160.934
sg71
I98
sg72
S'WestRuislip'
p304
sg73
F0
sg74
F0
sS'm'
F249750
sg75
I0
sg76
(lp305
S'74.02964'
p306
aS'32.1868'
p307
asg80
F8.940777777777777
sg81
F32.186799999999998
sg82
I9223372036854775807
sg83
F0
sS'x'
F74225.989599070832
sg84
(lp308
sg101
F64.373599999999996
sg102
(lp309
S'74.304998074'
p310
aS'WRL+100'
p311
aS'3'
asg106
F1637502.6799836075
sba(i__main__
Tr
p312
(dp313
g3
F15821207.121804109
sg4
g5
sg8
I7
sg9
F25899.752356000001
sg10
F1
sg11
F0
sg12
I9223372036854775807
sg13
F11160100
sg14
I9223372036854775807
sg15
I00
sg16
F110.01289982269483
sg17
S'sig:Epping:PVL+100'
p314
sg19
F96.560400000000001
sg20
I0
sg21
I9223372036854775807
sg22
F72.420299999999997
sg23
I11
sg24
I-1
sg25
I1
sg26
F0
sS'v'
F15.55837220873118
sg27
I930
sg28
I00
sg29
F-1
sg30
F56.010139951432251
sg31
g32
sg35
F26.822333333333333
sg36
F16093.4
sg37
I00
sg38
I00
sg39
I00
sg40
I9223372036854775807
sg41
S'green'
p315
sg43
F-0.0001733096670620322
sg44
F14.000616419443332
sg45
F214.60495560132574
sg46
F14644.994000000001
sg47
g48
sS'a'
F0.22217883151349266
sg49
F1
sg50
F878296.99328243034
sg51
F0
sg52
F0
sg53
I00
sg54
F214.60495560132574
sg55
I00
sg56
F0
sg57
F0.22217883151349266
sg58
S'Epping'
p316
sg60
S'BRCH9'
p317
sg62
(lp318
S'16.526473394'
p319
aS'HLA'
p320
aS'Hanger-Lane'
p321
asg67
I00
sg68
I00
sg69
F0
sg70
F160.934
sg71
I17
sg72
S''
sg73
F0
sg74
F0
sS'm'
F249750
sg75
I0
sg76
(lp322
S'16.0934'
p323
aS'72.4203'
p324
asg80
F20.11675
sg81
F96.560400000000001
sg82
F16526.473394000001
sg83
F0
sS'x'
F14000.616419443333
sg84
(lp325
sg101
F96.560400000000001
sg102
(lp326
S'14.644994'
p327
aS'9100'
p328
aS'1'
asg106
F1638640.0799837273
sba(i__main__
Tr
p329
(dp330
g3
F15807817.985855263
sg4
g5
sg8
I8
sg9
F25899.752356000001
sg10
F1
sg11
F0
sg12
I9223372036854775807
sg13
F11160100
sg14
I9223372036854775807
sg15
I01
sg16
F183.58080001789506
sg17
S'sig:Epping:Zorg'
p331
sg19
F72.420299999999997
sg20
I0
sg21
I9223372036854775807
sg22
F88.5137
sg23
I11
sg24
I-1
sg25
I2
sg26
F0
sS'v'
F20.096710179513689
sg27
I930
sg28
I00
sg29
F-1
sg30
F72.348156646249279
sg31
g32
sg35
F26.822333333333333
sg36
F19312.080000000002
sg37
I00
sg38
I01
sg39
I00
sg40
I9223372036854775807
sg41
S'green'
p332
sg43
F0.0023378718112211493
sg44
F17.959299594470632
sg45
F0
sg46
F18117.788785999997
sg47
g90
sS'a'
F0
sg49
F1
sg50
F10.99182904724813
sg51
F0
sg52
F0
sg53
I00
sg54
F214.60495560132574
sg55
I00
sg56
F0
sg57
F0
sg58
S'Epping'
p333
sg60
S'MAIN16'
p334
sg62
(lp335
S'19.423607262'
p336
aS'NAC'
p337
aS'North-Acton'
p338
asg67
I00
sg68
I00
sg69
F0
sg70
F160.934
sg71
I21
sg72
S''
sg73
F0
sg74
F0
sS'm'
F249750
sg75
I0
sg76
(lp339
S'19.31208'
p340
aS'88.5137'
p341
asg80
F20.11675
sg81
F72.420299999999997
sg82
F19423.607262000001
sg83
F0
sS'x'
F17959.299594470631
sg84
(lp342
sg101
F72.420299999999997
sg102
(lp343
S'18.117788786'
p344
aS'Zorg'
p345
aS'4C'
p346
aS'Main:Epping'
p347
aS'Branch:WestActon'
p348
aS'BranchOrientation:Right'
p349
asg106
F1616838.2999842658
sba(i__main__
Tr
p350
(dp351
g3
F15862897.018859796
sg4
g5
sg8
I10
sg9
F25899.752356000001
sg10
F1
sg11
F0
sg12
I9223372036854775807
sg13
F11160100
sg14
I9223372036854775807
sg15
I00
sg16
F52.001304832007662
sg17
S'sig:Epping:EAC+100'
p352
sg19
F88.5137
sg20
I0
sg21
I9223372036854775807
sg22
F40.233499999999999
sg23
I11
sg24
I-1
sg25
I3
sg26
F0
sS'v'
F10.698535754582185
sg27
I930
sg28
I00
sg29
F-1
sg30
F38.514728716495867
sg31
g32
sg35
F24.587138888888887
sg36
F22530.760000000002
sg37
I00
sg38
I01
sg39
I00
sg40
I9223372036854775807
sg41
S'green'
p353
sg43
F0.0019535760595487035
sg44
F21.58776660029012
sg45
F327.01707520202007
sg46
F21628.242128000002
sg47
g48
sS'a'
F0.52159907277437689
sg49
F1
sg50
F1416115.0314239904
sg51
F0
sg52
F0
sg53
I00
sg54
F327.01707520202007
sg55
I00
sg56
F0
sg57
F0.52159907277437689
sg58
S'Epping'
p354
sg60
S'MAIN17'
p355
sg62
(lp356
S'23.705417266'
p357
aS'WCI'
p358
aS'White-City'
p359
asg67
I00
sg68
I00
sg69
F0
sg70
F160.934
sg71
I25
sg72
S''
sg73
F0
sg74
F0
sS'm'
F249750
sg75
I0
sg76
(lp360
S'22.53076'
p361
aS'40.2335'
p362
asg80
F11.175972222222223
sg81
F88.5137
sg82
F23705.417266
sg83
F0
sS'x'
F21587.766600290121
sg84
(lp363
sg101
F88.5137
sg102
(lp364
S'21.628242128'
p365
aS'EAC+100'
p366
aS'1'
asg106
F1628663.6299840701
sba(i__main__
Tr
p367
(dp368
g3
F15865225.545079734
sg4
g5
sg8
I11
sg9
F25899.752356000001
sg10
F1
sg11
F0
sg12
I9223372036854775807
sg13
F11160100
sg14
I9223372036854775807
sg15
I00
sg16
F120.50430727359786
sg17
S'sig:Epping:15100'
p369
sg19
F64.373599999999996
sg20
I0
sg21
I9223372036854775807
sg22
F24.1401
sg23
I11
sg24
I-1
sg25
I5
sg26
F0
sS'v'
F16.283119884612361
sg27
I930
sg28
I00
sg29
F-1
sg30
F58.619231584604499
sg31
g32
sg35
F17.881555555555554
sg36
F35003.145000000004
sg37
I00
sg38
I01
sg39
I00
sg40
I9223372036854775807
sg41
S'green'
p370
sg43
F-0.0041516528908955314
sg44
F24.218786660233167
sg45
F187.35353266782403
sg46
F24301.034
sg47
g48
sS'a'
F0.1874214102032816
sg49
F1
sg50
F775655.76502382173
sg51
F0
sg52
F0
sg53
I00
sg54
F187.35353266782403
sg55
I00
sg56
F0
sg57
F0.1874214102032816
sg58
S'Epping'
p371
sg60
S'BRCH6'
p372
sg62
(lp373
S'24.92626259'
p374
aS'SBU'
p375
aS'Shepherds-Bush'
p376
asg67
I00
sg68
I00
sg69
F0
sg70
F160.934
sg71
I29
sg72
S''
sg73
F0
sg74
F0
sS'm'
F249750
sg75
I0
sg76
(lp377
S'35.003145'
p378
aS'24.1401'
p379
asg80
F6.7055833333333332
sg81
F64.373599999999996
sg82
F24926.262590000002
sg83
F0
sS'x'
F24218.786660233167
sg84
(lp380
sg101
F64.373599999999996
sg102
(lp381
S'24.301034'
p382
aS'15100'
p383
aS'1'
asg106
F1620532.4299842613
sba(i__main__
Tr
p384
(dp385
g3
F15878313.577993227
sg4
g5
sg8
I15
sg9
F25899.752356000001
sg10
F1
sg11
F0
sg12
I9223372036854775807
sg13
F11160100
sg14
I9223372036854775807
sg15
I00
sg16
F34.980212882909541
sg17
S'sig:Epping:QUW+100'
p386
sg19
F64.373599999999996
sg20
I0
sg21
I9223372036854775807
sg22
F24.1401
sg23
I11
sg24
I-1
sg25
I5
sg26
F0
sS'v'
F8.7669835903181372
sg27
I930
sg28
I00
sg29
F-1
sg30
F31.561140925145295
sg31
g32
sg35
F17.881555555555554
sg36
F35003.145000000004
sg37
I00
sg38
I00
sg39
I00
sg40
I9223372036854775807
sg41
S'green'
p387
sg43
F0.0026548580005542892
sg44
F28.280482954278078
sg45
F187.35353266782403
sg46
F28424.645882000001
sg47
g48
sS'a'
F-1.1000000000000001
sg49
F1
sg50
F0
sg51
F0
sg52
F0
sg53
I00
sg54
F187.35353266782403
sg55
I01
sg56
F0
sg57
F-1.1000000000000001
sg58
S'Epping'
p388
sg60
S'MAIN19'
p389
sg62
(lp390
S'28.315371696'
p391
aS'LAN'
p392
aS'Lancaster-Gate'
p393
asg67
I00
sg68
I00
sg69
F0
sg70
F160.934
sg71
I35
sg72
S''
sg73
F0
sg74
F0
sS'm'
F249750
sg75
I0
sg76
g377
sg80
F6.7055833333333332
sg81
F64.373599999999996
sg82
F28315.371695999998
sg83
F0
sS'x'
F28280.482954278079
sg84
(lp394
sg101
F64.373599999999996
sg102
(lp395
S'28.424645882'
p396
aS'LAN+100'
p397
aS'1'
asg106
F1631181.6399839164
sba(i__main__
Tr
p398
(dp399
g3
F15815954.973456491
sg4
g5
sg8
I23
sg9
F25899.752356000001
sg10
F1
sg11
F0
sg12
I9223372036854775807
sg13
F11160100
sg14
I9223372036854775807
sg15
I01
sg16
F20.414470984840591
sg17
S'sig:Epping:SPA+100'
p400
sg19
F24.1401
sg20
I0
sg21
I9223372036854775807
sg22
F48.280200000000001
sg23
I11
sg24
I-1
sg25
I6
sg26
F0
sS'v'
F6.7016293665532789
sg27
I930
sg28
I00
sg29
F-1
sg30
F24.125865719591804
sg31
g32
sg35
F17.881555555555554
sg36
F35968.749000000003
sg37
I00
sg38
I00
sg39
I00
sg40
I9223372036854775807
sg41
S'green'
p401
sg43
F-0.0038604897999818298
sg44
F35.493871791779149
sg45
F0
sg46
F35804.113517999998
sg47
g90
sS'a'
F0
sg49
F1
sg50
F1.8684085148268961
sg51
F0
sg52
F0
sg53
I00
sg54
F187.35353266782403
sg55
I00
sg56
F0
sg57
F0
sg58
S'Epping'
p402
sg60
S'MAIN20'
p403
sg62
(lp404
S'35.694839332'
p405
aS'BNK'
p406
aS'Bank'
p407
aS'X'
asg67
I00
sg68
I00
sg69
F0
sg70
F160.934
sg71
I46
sg72
S''
sg73
F0
sg74
F0
sS'm'
F249750
sg75
I0
sg76
(lp408
S'35.968749'
p409
aS'48.2802'
p410
asg80
F6.7055833333333332
sg81
F24.1401
sg82
F35694.839332000003
sg83
F0
sS'x'
F35493.871791779151
sg84
(lp411
sg101
F24.1401
sg102
(lp412
S'35.804113518'
p413
aS'BNK+100'
p414
aS'1'
asg106
F1642326.9499836524
sba(i__main__
Tr
p415
(dp416
g3
F15741412.662347754
sg4
g5
sg8
I26
sg9
F25899.752356000001
sg10
F1
sg11
F0
sg12
I9223372036854775807
sg13
F11160100
sg14
I9223372036854775807
sg15
I00
sg16
F150.31107976346848
sg17
S'sig:Epping:BTH+100'
p417
sg19
F80.466999999999999
sg20
I0
sg21
I9223372036854775807
sg22
F64.373599999999996
sg23
I11
sg24
I-1
sg25
I8
sg26
F0
sS'v'
F18.185240819977679
sg27
I930
sg28
I00
sg29
F-1
sg30
F65.466866951919641
sg31
g32
sg35
F22.351944444444445
sg36
F46670.860000000001
sg37
I00
sg38
I00
sg39
I00
sg40
I9223372036854775807
sg41
S'green'
p418
sg43
F-0.00027986077659595388
sg44
F39.947836125812977
sg45
F122.63140320075763
sg46
F40233.5
sg47
g48
sS'a'
F0.10232728237020229
sg49
F1
sg50
F473398.17823390855
sg51
F0
sg52
F0
sg53
I00
sg54
F122.63140320075763
sg55
I00
sg56
F0
sg57
F0.10232728237020229
sg58
S'Epping'
p419
sg60
S'MAIN21'
p420
sg62
(lp421
S'41.853461644'
p422
aS'MIL'
p423
aS'Mile-End'
p424
asg67
I00
sg68
I00
sg69
F0
sg70
F160.934
sg71
I52
sg72
S''
sg73
F0
sg74
F0
sS'm'
F249750
sg75
I0
sg76
g77
sg80
F17.881555555555554
sg81
F80.466999999999999
sg82
F41853.461644000003
sg83
F0
sS'x'
F39947.836125812973
sg84
(lp425
sg101
F80.466999999999999
sg102
(lp426
S'40.2335'
p427
aS'25000'
p428
aS'1'
asg106
F1637196.5499838626
sba(i__main__
Tr
p429
(dp430
g3
F15778919.420006208
sg4
g5
sg8
I34
sg9
F25899.752356000001
sg10
F1
sg11
F0
sg12
I9223372036854775807
sg13
F11160100
sg14
I9223372036854775807
sg15
I00
sg16
F89.264097016028586
sg17
S'sig:Epping:BHH+100'
p431
sg19
F96.560400000000001
sg20
I0
sg21
I9223372036854775807
sg22
F40.233499999999999
sg23
I10
sg24
I0
sg25
I10
sg26
F0
sS'v'
F14.015112494337737
sg27
I930
sg28
I00
sg29
F-1
sg30
F50.454404979615852
sg31
g32
sg35
F26.822333333333333
sg36
F73707.772000000012
sg37
I00
sg38
I00
sg39
I00
sg40
I9223372036854775807
sg41
S'green'
p432
sg43
F-0.0010709841574478385
sg44
F59.246072382314082
sg45
F405.36491613583757
sg46
F59786.981
sg47
g48
sS'a'
F0.30229567021143239
sg49
F1
sg50
F1075839.9207114545
sg51
F0
sg52
F0
sg53
I00
sg54
F405.36491613583757
sg55
I00
sg56
F0
sg57
F0.30229567021143239
sg58
S'Epping'
p433
sg60
S'BRCH1'
p434
sg62
(lp435
S'61.532149296'
p436
aS'LOU'
p437
aS'Loughton'
p438
asg67
I00
sg68
I00
sg69
F0
sg70
F160.934
sg71
I76
sg72
S'Epping'
p439
sg73
F0
sg74
F0
sS'm'
F249750
sg75
I0
sg76
g118
sg80
F11.175972222222223
sg81
F96.560400000000001
sg82
F61532.149296000003
sg83
F0
sS'x'
F59246.07238231408
sg84
(lp440
sg101
F96.560400000000001
sg102
(lp441
S'59.786981'
p442
aS'37150'
p443
aS'1'
asg106
F1640786.6199835679
sba(i__main__
Tr
p444
(dp445
g3
F15695688.198498391
sg4
g158
sg8
I29
sg9
F25899.752356000001
sg10
F1
sg11
F0
sg12
I9223372036854775807
sg13
F11160100
sg14
I9223372036854775807
sg15
I00
sg16
F183.12165736459497
sg17
S'sig:WestRuislip:33500'
p446
sg19
F72.420299999999997
sg20
I0
sg21
I9223372036854775807
sg22
F96.560400000000001
sg23
I10
sg24
I-1
sg25
I10
sg26
F0
sS'v'
F20.071682636420881
sg27
I930
sg28
I00
sg29
F-1
sg30
F72.258057491115181
sg31
g162
sg35
F22.351944444444445
sg36
F56326.900000000001
sg37
I00
sg38
I00
sg39
I00
sg40
I9223372036854775807
sg41
S'green'
p447
sg43
F0.0024549288061255971
sg44
F54.203857126387341
sg45
F0
sg129
F1774.1500000000001
sg46
F55065.177439999999
sg47
g90
sS'a'
F0.023902676526480926
sg49
F1
sg50
F122185.07661399916
sg51
F0
sg52
F0
sg53
I00
sg54
F64.722129467066509
sg55
I00
sg56
F0
sg57
F0.023902676526480926
sg58
S'WestRuislip'
p448
sg60
S'BRCH2'
p449
sg62
(lp450
S'55.063729034'
p451
aS'NAC'
p452
aS'North-Acton'
p453
asg67
I00
sg68
I00
sg69
F0
sg70
F160.934
sg71
I73
sg72
S''
sg73
F0
sg74
F0
sS'm'
F249750
sg75
I0
sg76
(lp454
S'56.3269'
p455
aS'96.5604'
p456
asg80
F20.11675
sg81
F72.420299999999997
sg82
F55063.729033999996
sg83
F0
sS'x'
F54203.857126387338
sg84
(lp457
sg101
F72.420299999999997
sg102
(lp458
S'55.06517744'
p459
aS'NAC+100'
p460
aS'1'
asg106
F1639755.6999836923
sba(i__main__
Tr
p461
(dp462
g3
F15806272.429940311
sg4
g5
sg8
I5
sg9
F25899.752356000001
sg10
F1
sg11
F0
sg12
I9223372036854775807
sg13
F11160100
sg14
I9223372036854775807
sg15
I00
sg16
F192.93898853140811
sg17
S'sig:Epping:6000'
p463
sg19
F96.560400000000001
sg20
I0
sg21
I9223372036854775807
sg22
F72.420299999999997
sg23
I11
sg24
I-1
sg25
I1
sg26
F0
sS'v'
F20.602579891778262
sg27
I930
sg28
I00
sg29
F-1
sg30
F74.169287610401753
sg31
g32
sg35
F26.822333333333333
sg36
F16093.4
sg37
I00
sg38
I00
sg39
I00
sg40
I9223372036854775807
sg41
S'green'
p464
sg43
F0.0050056019409953998
sg44
F10.538925246142115
sg45
F214.60495560132574
sg46
F11315.205166400001
sg47
g48
sS'a'
F0.0025405952664261868
sg49
F1
sg50
F13344.846510571009
sg51
F0
sg52
F0
sg53
I00
sg54
F214.60495560132574
sg55
I00
sg56
F0
sg57
F0.0025405952664261868
sg58
S'Epping'
p465
sg60
S'BRCH3'
p466
sg62
(lp467
S'11.2058827002'
p468
aS'GRF'
p469
aS'Greenford'
p470
asg67
I00
sg68
I00
sg69
F0
sg70
F160.934
sg71
I13
sg72
S''
sg73
F0
sg74
F0
sS'm'
F249750
sg75
I0
sg76
g322
sg80
F20.11675
sg81
F96.560400000000001
sg82
F11205.8827002
sg83
F0
sS'x'
F10538.925246142115
sg84
(lp471
sg101
F96.560400000000001
sg102
(lp472
S'11.3152051664'
p473
aS'GRF+100'
p474
aS'1'
asg106
F1640326.8199836712
sba(i__main__
Tr
p475
(dp476
g3
F15905130.484602204
sg4
g158
sg8
I2
sg9
F25899.752356000001
sg10
F1
sg11
F0
sg12
I9223372036854775807
sg13
F11160100
sg14
I9223372036854775807
sg15
I00
sg16
F193.91384383170757
sg17
S'sig:WestRuislip:5000'
p477
sg19
F96.560400000000001
sg20
I0
sg21
I9223372036854775807
sg22
F72.420299999999997
sg23
I11
sg24
I-1
sg25
I1
sg26
F0
sS'v'
F20.654552812737325
sg27
I930
sg28
I00
sg29
F-1
sg30
F74.356390125854375
sg31
g162
sg35
F26.822333333333333
sg36
F24140.099999999999
sg37
I00
sg38
I00
sg39
I00
sg40
I9223372036854775807
sg41
S'green'
p478
sg43
F0.0006763287006395271
sg44
F8.6307066639627017
sg45
F214.60495560132574
sg46
F8851.369999999999
sg47
g48
sS'a'
F0.00046219545333592028
sg49
F1
sg50
F2443.4801739799445
sg51
F0
sg52
F0
sg53
I00
sg54
F214.60495560132574
sg55
I00
sg56
F0
sg57
F0.00046219545333592028
sg58
S'WestRuislip'
p479
sg60
S'BRCH4'
p480
sg62
(lp481
S'10.18551286'
p482
aS'DBD'
p483
aS'Debden'
p484
asg67
I00
sg68
I00
sg69
F0
sg70
F160.934
sg71
I12
sg72
S''
sg73
F0
sg74
F0
sS'm'
F249750
sg75
I0
sg76
g172
sg80
F20.11675
sg81
F96.560400000000001
sg82
F10185.512859999999
sg83
F0
sS'x'
F8630.706663962701
sg84
(lp485
sg101
F96.560400000000001
sg102
(lp486
S'8.85137'
p487
aS'5500'
p488
aS'1'
asg106
F1617341.6599842869
sbasg101
F80.466999999999999
sg102
(lp489
S'44.900586'
p490
aS'27900'
p491
aS'1'
asg106
F1632357.7599838544
sb.