(i__main__
Tr
p1
(dp2
S'mechWear'
p3
F3568983.2085731346
sS'nextGRD'
p4
(lp5
S'0.0'
p6
aS'0.0'
p7
asS'STAcnt'
p8
I17
sS'maxSquareSpeed'
p9
F25899.752356000001
sS'consumptionCutOff'
p10
F1
sS'grade'
p11
F0
sS'nGRDx'
p12
I9223372036854775807
sS'admissionWear'
p13
F2520100
sS'transitionGRDx'
p14
I9223372036854775807
sS'coasting'
p15
I00
sS'BDzero'
p16
F132.77959255418634
sS'redisSIG'
p17
S'sig:Epping:MBL+100'
p18
sS'maxTIV'
p19
F64.373599999999996
sS'CRVcnt'
p20
I0
sS'nCRVx'
p21
I9223372036854775807
sS'nTIVvl'
p22
F24.1401
sS'trip'
p23
I2
sS'pathCnt'
p24
I-1
sS'TIVcnt'
p25
I5
sS'waitSta'
p26
F0
sS'v'
F17.092126538275288
sS'pax'
p27
I930
sS'startingPhase'
p28
I00
sS'advTIV'
p29
F-1
sS'vK'
p30
F61.531655537791039
sS'nextCRV'
p31
(lp32
S'0.0'
p33
aS'0.0'
p34
asS'cv'
p35
F17.881555555555554
sS'nTIVx'
p36
F35003.145000000004
sS'sigBrake'
p37
I00
sS'sigSpotted'
p38
I00
sS'inSta'
p39
I00
sS'transitionCRVx'
p40
I9223372036854775807
sS'advSIGcol'
p41
S'green'
p42
sS'aGaussFactor'
p43
F0.0010228355978808821
sS'PK'
p44
F30.044491781491921
sS'deltaBDtiv'
p45
F187.35353266782403
sS'nSIGx'
p46
F30465.449935999997
sS'nTIVtype'
p47
S'DEC'
p48
sS'a'
F0.15028291401160687
sS'ratioGRD'
p49
F1
sS'power'
p50
F653104.44341988699
sS'gradient'
p51
F0
sS'BDsta'
p52
F0
sS'initSwitchSeg'
p53
I00
sS'BDtiv'
p54
F187.35353266782403
sS'staBrake'
p55
I00
sS'waitReact'
p56
F0
sS'aFull'
p57
F0.15028291401160687
sS'segment'
p58
S'Epping'
p59
sS'name'
p60
S'MAIN1'
p61
sS'nextSTA'
p62
(lp63
S'30.35617575'
p64
aS'BST'
p65
aS'Bond-Street'
p66
aS'X'
asS'react'
p67
I00
sS'atSig'
p68
I00
sS'deltaBDsta'
p69
F0
sS'tgtVk'
p70
F160.934
sS'SIGcnt'
p71
I38
sS'pathBranch'
p72
S''
sS'oldGradient'
p73
F0
sS'critVk'
p74
F0
sS'm'
F249750
sS'GRDcnt'
p75
I0
sS'nextTIV'
p76
(lp77
S'35.003145'
p78
aS'24.1401'
p79
asS'nv'
p80
F6.7055833333333332
sS'maxVk'
p81
F64.373599999999996
sS'nSTAx'
p82
F30356.175749999999
sS'DBrt'
p83
F0
sS'x'
F30044.491781491921
sS'trs'
p84
(lp85
(i__main__
Tr
p86
(dp87
g3
F3532249.352193966
sg4
g5
sg8
I20
sg9
F25899.752356000001
sg10
F1
sg11
F0
sg12
I9223372036854775807
sg13
F2520100
sg14
I9223372036854775807
sg15
I01
sg16
F145.05541350688839
sg17
S'sig:Epping:20100'
p88
sg19
F64.373599999999996
sg20
I0
sg21
I9223372036854775807
sg22
F24.1401
sg23
I2
sg24
I-1
sg25
I5
sg26
F0
sS'v'
F17.863983590318103
sg27
I930
sg28
I00
sg29
F-1
sg30
F64.310340925145169
sg31
g32
sg35
F17.881555555555554
sg36
F35003.145000000004
sg37
I00
sg38
I00
sg39
I00
sg40
I9223372036854775807
sg41
S'green'
p89
sg43
F0.0050740227906848137
sg44
F32.471507110046971
sg45
F187.35353266782403
sg46
F33070.971396000001
sg47
g48
sS'a'
F0
sg49
F1
sg50
F8.6396310286969982
sg51
F0
sg52
F0
sg53
I00
sg54
F187.35353266782403
sg55
I00
sg56
F0
sg57
F0
sg58
S'Epping'
p90
sg60
S'MAIN14'
p91
sg62
(lp92
S'32.96169721'
p93
aS'HLB'
p94
aS'Holborn'
p95
aS'X'
asg67
I00
sg68
I00
sg69
F0
sg70
F160.934
sg71
I42
sg72
S''
sg73
F0
sg74
F0
sS'm'
F249750
sg75
I0
sg76
g77
sg80
F6.7055833333333332
sg81
F64.373599999999996
sg82
F32961.697209999998
sg83
F0
sS'x'
F32471.507110046969
sg84
(lp96
sS'cTIVvl'
p97
F64.373599999999996
sS'nextSIG'
p98
(lp99
S'33.070971396'
p100
aS'HLB+100'
p101
aS'1'
asS'brakeWear'
p102
F371875.35000435513
sba(i__main__
Tr
p103
(dp104
g3
F3497858.282272398
sg4
g5
sg8
I22
sg9
F25899.752356000001
sg10
F1
sg11
F0
sg12
I9223372036854775807
sg13
F2520100
sg14
I9223372036854775807
sg15
I01
sg16
F145.05541350688839
sg17
S'sig:Epping:21350'
p105
sg19
F64.373599999999996
sg20
I0
sg21
I9223372036854775807
sg22
F24.1401
sg23
I2
sg24
I-1
sg25
I5
sg26
F0
sS'v'
F17.863983590318103
sg27
I930
sg28
I00
sg29
F-1
sg30
F64.310340925145169
sg31
g32
sg35
F17.881555555555554
sg36
F35003.145000000004
sg37
I00
sg38
I01
sg39
I00
sg40
I9223372036854775807
sg41
S'green'
p106
sg43
F-0.0041082574119398795
sg44
F34.323256101374085
sg45
F187.35353266782403
sg46
F34359.409
sg47
g48
sS'a'
F0
sg49
F1
sg50
F8.6396310286969982
sg51
F0
sg52
F0
sg53
I00
sg54
F187.35353266782403
sg55
I00
sg56
F0
sg57
F0
sg58
S'Epping'
p107
sg60
S'MAIN2'
p108
sg62
(lp109
S'34.893066144'
p110
aS'SPA'
p111
aS'Saint-Pauls'
p112
asg67
I00
sg68
I00
sg69
F0
sg70
F160.934
sg71
I44
sg72
S''
sg73
F0
sg74
F0
sS'm'
F249750
sg75
I0
sg76
g77
sg80
F6.7055833333333332
sg81
F64.373599999999996
sg82
F34893.066144000004
sg83
F0
sS'x'
F34323.256101374085
sg84
(lp113
sg97
F64.373599999999996
sg98
(lp114
S'34.359409'
p115
aS'21350'
p116
aS'1'
asg102
F375148.40000444214
sba(i__main__
Tr
p117
(dp118
g3
F3424551.012973506
sg4
g5
sg8
I24
sg9
F25899.752356000001
sg10
F1
sg11
F0
sg12
I9223372036854775807
sg13
F2520100
sg14
I9223372036854775807
sg15
I01
sg16
F81.605646177676277
sg17
S'sig:Epping:BNK+100'
p119
sg19
F48.280200000000001
sg20
I0
sg21
I9223372036854775807
sg22
F80.466999999999999
sg23
I2
sg24
I-1
sg25
I7
sg26
F0
sS'v'
F13.398970915368382
sg27
I930
sg28
I00
sg29
F-1
sg30
F48.23629529532618
sg31
g32
sg35
F17.881555555555554
sg36
F36692.951999999997
sg37
I00
sg38
I00
sg39
I00
sg40
I9223372036854775807
sg41
S'green'
p120
sg43
F-0.002313561225785141
sg44
F36.233499346497837
sg45
F0
sS'sigPoll'
p121
F245.72999999999999
sg46
F36605.886705999998
sg47
S'INC'
p122
sS'a'
F0
sg49
F1
sg50
F5.0830432393547804
sg51
F0
sg52
F0
sg53
I00
sg54
F187.35353266782403
sg55
I00
sg56
F0
sg57
F0
sg58
S'Epping'
p123
sg60
S'MAIN15'
p124
sg62
(lp125
S'36.49661252'
p126
aS'LIV'
p127
aS'Liverpool-Street'
p128
aS'X'
asg67
I00
sg68
I00
sg69
F0
sg70
F160.934
sg71
I47
sg72
S''
sg73
F0
sg74
F0
sS'm'
F249750
sg75
I0
sg76
(lp129
S'36.692952'
p130
aS'80.467'
p131
asg80
F6.7055833333333332
sg81
F48.280200000000001
sg82
F36496.612520000002
sg83
F0
sS'x'
F36233.49934649784
sg84
(lp132
sg97
F48.280200000000001
sg98
(lp133
S'36.605886706'
p134
aS'LIV+100'
p135
aS'1'
asg102
F368528.49000425887
sba(i__main__
Tr
p136
(dp137
g3
F3502769.709486437
sg4
g5
sg8
I30
sg9
F25899.752356000001
sg10
F1
sg11
F0
sg12
I9223372036854775807
sg13
F2520100
sg14
I9223372036854775807
sg15
I00
sg16
F122.70623896298254
sg17
S'sig:Epping:LYS+100'
p138
sg19
F96.560400000000001
sg20
I0
sg21
I9223372036854775807
sg22
F40.233499999999999
sg23
I2
sg24
I0
sg25
I10
sg26
F0
sS'v'
F16.431171101548028
sg27
I930
sg28
I00
sg29
F-1
sg30
F59.1522159655729
sg31
g32
sg35
F26.822333333333333
sg36
F73707.772000000012
sg37
I00
sg38
I00
sg39
I00
sg40
I9223372036854775807
sg41
S'green'
p139
sg43
F-0.0015528794108279384
sg44
F50.111366473341981
sg45
F405.36491613583757
sg46
F50613.743000000002
sg47
g48
sS'a'
F0.18050365455594425
sg49
F1
sg50
F753869.25585629977
sg51
F0
sg52
F0
sg53
I00
sg54
F405.36491613583757
sg55
I00
sg56
F0
sg57
F0.18050365455594425
sg58
S'Epping'
p140
sg60
S'MAIN3'
p141
sg62
(lp142
S'52.05732098'
p143
aS'SNR'
p144
aS'Snaresbrook'
p145
asg67
I00
sg68
I00
sg69
F0
sg70
F160.934
sg71
I65
sg72
S'Epping'
p146
sg73
F0
sg74
F0
sS'm'
F249750
sg75
I0
sg76
(lp147
S'73.707772'
p148
aS'40.2335'
p149
asg80
F11.175972222222223
sg81
F96.560400000000001
sg82
F52057.320979999997
sg83
F0
sS'x'
F50111.366473341979
sg84
(lp150
sg97
F96.560400000000001
sg98
(lp151
S'50.613743'
p152
aS'31450'
p153
aS'1'
asg102
F379151.08000452141
sba(i__main__
Tr
p154
(dp155
g3
F3540334.8361714734
sg4
g5
sg8
I33
sg9
F25899.752356000001
sg10
F1
sg11
F0
sg12
I9223372036854775807
sg13
F2520100
sg14
I9223372036854775807
sg15
I00
sg16
F187.33514950887994
sg17
S'sig:Epping:36100'
p156
sg19
F96.560400000000001
sg20
I0
sg21
I9223372036854775807
sg22
F40.233499999999999
sg23
I2
sg24
I0
sg25
I10
sg26
F0
sS'v'
F20.301238880179618
sg27
I930
sg28
I00
sg29
F-1
sg30
F73.084459968646627
sg31
g32
sg35
F26.822333333333333
sg36
F73707.772000000012
sg37
I00
sg38
I01
sg39
I00
sg40
I9223372036854775807
sg41
S'green'
p157
sg43
F0.0024107411921183582
sg44
F57.92953581359847
sg45
F405.36491613583757
sg46
F58097.173999999999
sg47
g48
sS'a'
F0.014635342961098037
sg49
F1
sg50
F75682.392593260141
sg51
F0
sg52
F0
sg53
I00
sg54
F405.36491613583757
sg55
I00
sg56
F0
sg57
F0.014635342961098037
sg58
S'Epping'
p158
sg60
S'BRCH7'
p159
sg62
(lp160
S'59.072273106'
p161
aS'BHH'
p162
aS'Buckhurst-Hill'
p163
asg67
I00
sg68
I00
sg69
F0
sg70
F160.934
sg71
I74
sg72
S'Epping'
p164
sg73
F0
sg74
F0
sS'm'
F249750
sg75
I0
sg76
g147
sg80
F11.175972222222223
sg81
F96.560400000000001
sg82
F59072.273106000001
sg83
F0
sS'x'
F57929.535813598472
sg84
(lp165
sg97
F96.560400000000001
sg98
(lp166
S'58.097174'
p167
aS'36100'
p168
aS'1'
asg102
F369214.56000437081
sba(i__main__
Tr
p169
(dp170
g3
F3660555.342470841
sg4
g5
sg8
I37
sg9
F25899.752356000001
sg10
F1
sg11
F0
sg12
I9223372036854775807
sg13
F2520100
sg14
I9223372036854775807
sg15
I01
sg16
F56.724849071726226
sg17
S'sig:Epping:EPP-200'
p171
sg19
F40.233499999999999
sg20
I0
sg21
I9223372036854775807
sg22
F40.233499999999999
sg23
I2
sg24
I0
sg25
I10
sg26
F0
sS'v'
F11.171153385295437
sg27
I930
sg28
I00
sg29
F73707.772000000012
sg30
F40.216152187063571
sg31
g32
sg35
F26.822333333333333
sg36
I9223372036854775807
sg37
I00
sg38
I00
sg39
I00
sg40
I9223372036854775807
sg41
S'green'
p172
sg43
F0.0037536476679594947
sg44
F73.688816310733017
sg45
F405.36491613583757
sg46
F74141.006328000003
sg47
g48
sS'a'
F0
sg49
F1
sg50
F3.7811183496791143
sg51
F0
sg52
F0
sg53
I00
sg54
F405.36491613583757
sg55
I00
sg56
F0
sg57
F0
sg58
S'Epping'
p173
sg60
S'BRCH8'
p174
sg62
(lp175
S'74.031732142'
p176
aS'EPP'
p177
aS'Epping'
p178
asg67
I00
sg68
I00
sg69
F0
sg70
F160.934
sg71
I94
sg72
S'Epping'
p179
sg73
F0
sg74
F0
sS'm'
F249750
sg75
I0
sg76
g147
sg80
F11.175972222222223
sg81
F40.233499999999999
sg82
F74031.732141999993
sg83
F0
sS'x'
F73688.816310733018
sg84
(lp180
sg97
F96.560400000000001
sg98
(lp181
S'74.141006328'
p182
aS'EPP+100'
p183
aS'3'
asg102
F357263.39000397979
sba(i__main__
Tr
p184
(dp185
g3
F3635779.7539433553
sg4
(lp186
S'0.0'
p187
aS'0.0'
p188
asg8
I2
sg9
F25899.752356000001
sg10
F1
sg11
F0
sg12
I9223372036854775807
sg13
F2520100
sg14
I9223372036854775807
sg15
I00
sg16
F174.12331133319321
sg17
S'sig:WestRuislip:3900'
p189
sg19
F96.560400000000001
sg20
I0
sg21
I9223372036854775807
sg22
F72.420299999999997
sg23
I3
sg24
I-1
sg25
I1
sg26
F0
sS'v'
F19.572428134614132
sg27
I930
sg28
I00
sg29
F-1
sg30
F70.460741284610876
sg31
(lp190
S'0.0'
p191
aS'0.0'
p192
asg35
F26.822333333333333
sg36
F24140.099999999999
sg37
I00
sg38
I00
sg39
I00
sg40
I9223372036854775807
sg41
S'green'
p193
sg43
F0.0027287393436649229
sg44
F6.3104734304983809
sg45
F214.60495560132574
sg46
F7242.0299999999997
sg47
g48
sS'a'
F0.04423672153671665
sg49
F1
sg50
F220433.05379595203
sg51
F0
sg52
F0
sg53
I00
sg54
F214.60495560132574
sg55
I00
sg56
F0
sg57
F0.04423672153671665
sg58
S'WestRuislip'
p194
sg60
S'MAIN7'
p195
sg62
(lp196
S'10.18551286'
p197
aS'DBD'
p198
aS'Debden'
p199
asg67
I00
sg68
I00
sg69
F0
sg70
F160.934
sg71
I10
sg72
S''
sg73
F0
sg74
F0
sS'm'
F249750
sg75
I0
sg76
(lp200
S'24.1401'
p201
aS'72.4203'
p202
asg80
F20.11675
sg81
F96.560400000000001
sg82
F10185.512859999999
sg83
F0
sS'x'
F6310.4734304983813
sg84
(lp203
sg97
F96.560400000000001
sg98
(lp204
S'7.24203'
p205
aS'4500'
p206
aS'1'
asg102
F356647.50000407733
sba(i__main__
Tr
p207
(dp208
g3
F3665815.8897482995
sg4
g186
sg8
I6
sg9
F25899.752356000001
sg10
F1
sg11
F0
sg12
I9223372036854775807
sg13
F2520100
sg14
I9223372036854775807
sg15
I00
sg16
F183.10201130714293
sg17
S'sig:WestRuislip:11850'
p209
sg19
F96.560400000000001
sg20
I0
sg21
I9223372036854775807
sg22
F72.420299999999997
sg23
I3
sg24
I-1
sg25
I1
sg26
F0
sS'v'
F20.070606144785593
sg27
I930
sg28
I00
sg29
F-1
sg30
F72.254182121228141
sg31
g190
sg35
F26.822333333333333
sg36
F24140.099999999999
sg37
I00
sg38
I00
sg39
I00
sg40
I9223372036854775807
sg41
S'green'
p210
sg43
F-0.0023081732155732812
sg44
F19.291541506928407
sg45
F214.60495560132574
sg46
F19794.882000000001
sg47
g48
sS'a'
F0.023946251008275309
sg49
F1
sg50
F122401.16005321321
sg51
F0
sg52
F0
sg53
I00
sg54
F214.60495560132574
sg55
I00
sg56
F0
sg57
F0.023946251008275309
sg58
S'WestRuislip'
p211
sg60
S'MAIN8'
p212
sg62
(lp213
S'20.516831924'
p214
aS'SWO'
p215
aS'South-Woodford'
p216
asg67
I00
sg68
I00
sg69
F0
sg70
F160.934
sg71
I26
sg72
S''
sg73
F0
sg74
F0
sS'm'
F249750
sg75
I0
sg76
g200
sg80
F20.11675
sg81
F96.560400000000001
sg82
F20516.831924000002
sg83
F0
sS'x'
F19291.541506928406
sg84
(lp217
sg97
F96.560400000000001
sg98
(lp218
S'19.794882'
p219
aS'12300'
p220
aS'1'
asg102
F352828.74000416161
sba(i__main__
Tr
p221
(dp222
g3
F3652565.4993147473
sg4
g186
sg8
I10
sg9
F25899.752356000001
sg10
F1
sg11
F0
sg12
I9223372036854775807
sg13
F2520100
sg14
I9223372036854775807
sg15
I00
sg16
F191.03351072132253
sg17
S'sig:WestRuislip:17300'
p223
sg19
F80.466999999999999
sg20
I0
sg21
I9223372036854775807
sg22
F64.373599999999996
sg23
I3
sg24
I-1
sg25
I3
sg26
F0
sS'v'
F20.500611739245052
sg27
I930
sg28
I00
sg29
F-1
sg30
F73.80220226128219
sg31
g190
sg35
F22.351944444444445
sg36
F34118.008000000002
sg37
I00
sg38
I00
sg39
I00
sg40
I9223372036854775807
sg41
S'green'
p224
sg43
F0.0025272272822039758
sg44
F28.686914183358169
sg45
F122.63140320075763
sg46
F29098.798407999999
sg47
g48
sS'a'
F0.006624667970114342
sg49
F1
sg50
F34604.206196617859
sg51
F0
sg52
F0
sg53
I00
sg54
F122.63140320075763
sg55
I00
sg56
F0
sg57
F0.006624667970114342
sg58
S'WestRuislip'
p225
sg60
S'MAIN9'
p226
sg62
(lp227
S'28.989524222'
p228
aS'STR'
p229
aS'Stratford'
p230
aS'X'
asg67
I00
sg68
I00
sg69
F0
sg70
F160.934
sg71
I37
sg72
S''
sg73
F0
sg74
F0
sS'm'
F249750
sg75
I0
sg76
(lp231
S'34.118008'
p232
aS'64.3736'
p233
asg80
F17.881555555555554
sg81
F80.466999999999999
sg82
F28989.524222
sg83
F0
sS'x'
F28686.914183358171
sg84
(lp234
sg97
F80.466999999999999
sg98
(lp235
S'29.098798408'
p236
aS'STR+100'
p237
aS'1'
asg102
F356877.40000419895
sba(i__main__
Tr
p238
(dp239
g3
F3635036.9792332859
sg4
g186
sg8
I14
sg9
F25899.752356000001
sg10
F1
sg11
F0
sg12
I9223372036854775807
sg13
F2520100
sg14
I9223372036854775807
sg15
I01
sg16
F20.412710422389559
sg17
S'sig:WestRuislip:LIV+100'
p240
sg19
F24.1401
sg20
I0
sg21
I9223372036854775807
sg22
F48.280200000000001
sg23
I2
sg24
I-1
sg25
I5
sg26
F0
sS'v'
F6.7013403830321163
sg27
I930
sg28
I00
sg29
F-1
sg30
F24.12482537891562
sg31
g190
sg35
F17.881555555555554
sg36
F39106.962
sg37
I00
sg38
I00
sg39
I00
sg40
I9223372036854775807
sg41
S'yellow'
p241
sg43
F-0.0034824300337918867
sg44
F38.394379548188887
sg45
F0
sg46
F38938.142233999999
sg47
g122
sS'a'
F0
sg49
F1
sg50
F1.8683085574252887
sg51
F0
sg52
F0
sg53
I00
sg54
F187.35353266782403
sg55
I00
sg56
F0
sg57
F0
sg58
S'WestRuislip'
p242
sg60
S'MAIN11'
p243
sg62
(lp244
S'38.828868048'
p245
aS'BNK'
p246
aS'Bank'
p247
aS'X'
asg67
I00
sg68
I00
sg69
F0
sg70
F160.934
sg71
I50
sg72
S''
sg73
F0
sg74
F0
sS'm'
F249750
sg75
I0
sg76
(lp248
S'39.106962'
p249
aS'48.2802'
p250
asg80
F6.7055833333333332
sg81
F24.1401
sg82
F38828.868047999997
sg83
F0
sS'x'
F38394.379548188888
sg84
(lp251
sg97
F24.1401
sg98
(lp252
S'38.938142234'
p253
aS'BNK+100'
p254
aS'1'
asg102
F360670.75000426883
sba(i__main__
Tr
p255
(dp256
g3
F3568654.9159838404
sg4
g186
sg8
I19
sg9
F25899.752356000001
sg10
F1
sg11
F0
sg12
I9223372036854775807
sg13
F2520100
sg14
I9223372036854775807
sg15
I00
sg16
F0
sg17
S'sig:WestRuislip:26200'
p257
sg19
F64.373599999999996
sg20
I0
sg21
I9223372036854775807
sg22
F40.233499999999999
sg23
I2
sg24
I-1
sg25
I7
sg26
F12609.67
sS'v'
F0
sg27
I930
sg28
I01
sg29
F-1
sg30
F0
sg31
g190
sg35
F17.881555555555554
sg36
F49889.539999999994
sg37
I00
sg38
I00
sg39
I01
sg40
I9223372036854775807
sg41
S'green'
p258
sg43
F0.0028646958155305637
sg44
F42.673421140790644
sg45
F132.85068680082065
sg46
F42782.855494000003
sg47
g48
sS'a'
F0
sg49
F1
sg50
F0
sg51
F0
sg52
F0
sg53
I00
sg54
F132.85068680082065
sg55
I00
sg56
F0
sg57
F0
sg58
S'WestRuislip'
p259
sg60
S'MAIN18'
p260
sg62
(lp261
S'43.529911122'
p262
aS'OXF'
p263
aS'Oxford-Circus'
p264
aS'X'
asg67
I00
sg68
I00
sg69
F0
sg70
F160.934
sg71
I56
sg72
S''
sg73
F0
sg74
F0
sS'm'
F249750
sg75
I0
sg76
(lp265
S'49.88954'
p266
aS'40.2335'
p267
asg80
F11.175972222222223
sg81
F64.373599999999996
sg82
F43529.911122000005
sg83
F0
sS'x'
F42673.421140790648
sg84
(lp268
sg97
F64.373599999999996
sg98
(lp269
S'42.782855494'
p270
aS'TTT+100'
p271
aS'1'
asg102
F367646.40000436187
sba(i__main__
Tr
p272
(dp273
g3
F3537675.535703327
sg4
g186
sg8
I23
sg9
F25899.752356000001
sg10
F1
sg11
F0
sg12
I9223372036854775807
sg13
F2520100
sg14
I9223372036854775807
sg15
I00
sg16
F34.082452806765851
sg17
S'sig:WestRuislip:28400'
p274
sg19
F64.373599999999996
sg20
I0
sg21
I9223372036854775807
sg22
F40.233499999999999
sg23
I2
sg24
I-1
sg25
I7
sg26
F0
sS'v'
F8.6627694979964023
sg27
I930
sg28
I00
sg29
F-1
sg30
F31.18597019278705
sg31
g190
sg35
F17.881555555555554
sg36
F49889.539999999994
sg37
I00
sg38
I00
sg39
I00
sg40
I9223372036854775807
sg41
S'green'
p275
sg43
F-0.0021265984855123442
sg44
F46.208035318627516
sg45
F132.85068680082065
sg46
F46281.238786000002
sg47
g48
sS'a'
F0.71792382230317353
sg49
F1
sg50
F1578842.2299887408
sg51
F0
sg52
F0
sg53
I00
sg54
F132.85068680082065
sg55
I00
sg56
F0
sg57
F0.71792382230317353
sg58
S'WestRuislip'
p276
sg60
S'MAIN12'
p277
sg62
(lp278
S'47.046479956'
p279
aS'QUW'
p280
aS'Queensway'
p281
asg67
I00
sg68
I00
sg69
F0
sg70
F160.934
sg71
I61
sg72
S''
sg73
F0
sg74
F0
sS'm'
F249750
sg75
I0
sg76
g265
sg80
F11.175972222222223
sg81
F64.373599999999996
sg82
F47046.479955999996
sg83
F0
sS'x'
F46208.035318627517
sg84
(lp282
sg97
F64.373599999999996
sg98
(lp283
S'46.281238786'
p284
aS'LAN+100'
p285
aS'1'
asg102
F374144.10000453278
sba(i__main__
Tr
p286
(dp287
g3
F3495725.7504244605
sg4
g186
sg8
I29
sg9
F25899.752356000001
sg10
F1
sg11
F0
sg12
I9223372036854775807
sg13
F2520100
sg14
I9223372036854775807
sg15
I00
sg16
F20.665518438596482
sg17
S'sig:WestRuislip:33500'
p288
sg19
F72.420299999999997
sg20
I0
sg21
I9223372036854775807
sg22
F96.560400000000001
sg23
I2
sg24
I-1
sg25
I10
sg26
F0
sS'v'
F6.7372101795132995
sg27
I930
sg28
I00
sg29
F-1
sg30
F24.253956646247879
sg31
g190
sg35
F22.351944444444445
sg36
F56326.900000000001
sg37
I00
sg38
I00
sg39
I00
sg40
I9223372036854775807
sg41
S'green'
p289
sg43
F0.0043448184000586055
sg44
F55.043114542444606
sg45
F0
sg46
F55065.177439999999
sg47
g122
sS'a'
F-1.1000000000000001
sg49
F1
sg50
F0
sg51
F0
sg52
F0
sg53
I00
sg54
F64.722129467066509
sg55
I01
sg56
F0
sg57
F-1.1000000000000001
sg58
S'WestRuislip'
p290
sg60
S'MAIN13'
p291
sg62
(lp292
S'55.063729034'
p293
aS'NAC'
p294
aS'North-Acton'
p295
asg67
I00
sg68
I00
sg69
F0
sg70
F160.934
sg71
I73
sg72
S''
sg73
F0
sg74
F0
sS'm'
F249750
sg75
I0
sg76
(lp296
S'56.3269'
p297
aS'96.5604'
p298
asg80
F20.11675
sg81
F72.420299999999997
sg82
F55063.729033999996
sg83
F0
sS'x'
F55043.114542444608
sg84
(lp299
sg97
F72.420299999999997
sg98
(lp300
S'55.06517744'
p301
aS'NAC+100'
p302
aS'1'
asg102
F377912.04000444955
sba(i__main__
Tr
p303
(dp304
g3
F3548084.1859692028
sg4
g186
sg8
I35
sg9
F25899.752356000001
sg10
F1
sg11
F0
sg12
I9223372036854775807
sg13
F2520100
sg14
I9223372036854775807
sg15
I00
sg16
F117.53631178828238
sg17
S'sig:WestRuislip:SRL+100'
p305
sg19
F96.560400000000001
sg20
I0
sg21
I9223372036854775807
sg22
F64.373599999999996
sg23
I2
sg24
I0
sg25
I11
sg26
F0
sS'v'
F16.081404042688892
sg27
I930
sg28
I00
sg29
F-1
sg30
F57.89305455368001
sg31
g190
sg35
F26.822333333333333
sg36
F72903.101999999999
sg37
I00
sg38
I00
sg39
I00
sg40
I9223372036854775807
sg41
S'green'
p306
sg43
F-0.0008658572744236491
sg44
F70.215336725735639
sg45
F272.51422933501681
sg46
F70810.959999999992
sg47
g48
sS'a'
F0.19694188118078262
sg49
F1
sg50
F804887.05882099178
sg51
F0
sg52
F0
sg53
I00
sg54
F272.51422933501681
sg55
I00
sg56
F0
sg57
F0.19694188118078262
sg58
S'WestRuislip'
p307
sg60
S'BRCH9'
p308
sg62
(lp309
S'71.480767308'
p310
aS'RLG'
p311
aS'Ruislip-Gardens'
p312
asg67
I00
sg68
I00
sg69
F0
sg70
F160.934
sg71
I93
sg72
S'WestRuislip'
p313
sg73
F0
sg74
F0
sS'm'
F249750
sg75
I0
sg76
(lp314
S'72.903102'
p315
aS'64.3736'
p316
asg80
F17.881555555555554
sg81
F96.560400000000001
sg82
F71480.767307999995
sg83
F0
sS'x'
F70215.336725735644
sg84
(lp317
sg97
F96.560400000000001
sg98
(lp318
S'70.81096'
p319
aS'44000'
p320
aS'1'
asg102
F375875.61000436865
sba(i__main__
Tr
p321
(dp322
g3
F3533145.6201849664
sg4
g186
sg8
I36
sg9
F25899.752356000001
sg10
F1
sg11
F0
sg12
I9223372036854775807
sg13
F2520100
sg14
I9223372036854775807
sg15
I01
sg16
F36.313701245420589
sg17
S'sig:WestRuislip:WRL-200'
p323
sg19
F32.186799999999998
sg20
I0
sg21
I9223372036854775807
sg22
F32.186799999999998
sg23
I2
sg24
I0
sg25
I12
sg26
F0
sS'v'
F8.9381285927158878
sg27
I930
sg28
I00
sg29
F-1
sg30
F32.1772629337772
sg31
g190
sg35
F17.881555555555554
sg36
I9223372036854775807
sg37
I00
sg38
I00
sg39
I00
sg40
I9223372036854775807
sg41
S'green'
p324
sg43
F-0.0030638573742150436
sg44
F74.096548409113069
sg45
F163.50853760101006
sg46
F74304.998074000003
sg47
g48
sS'a'
F0
sg49
F1
sg50
F2.7254851090811822
sg51
F0
sg52
F0
sg53
I00
sg54
F163.50853760101006
sg55
I00
sg56
F0
sg57
F0
sg58
S'WestRuislip'
p325
sg60
S'MAIN16'
p326
sg62
(lp327
S'74.195723888'
p328
aS'WRL'
p329
aS'West-Ruislip'
p330
asg67
I00
sg68
I00
sg69
F0
sg70
F160.934
sg71
I98
sg72
S'WestRuislip'
p331
sg73
F0
sg74
F0
sS'm'
F249750
sg75
I0
sg76
(lp332
S'74.02964'
p333
aS'32.1868'
p334
asg80
F8.940777777777777
sg81
F32.186799999999998
sg82
F74195.723888000008
sg83
F0
sS'x'
F74096.548409113064
sg84
(lp335
sg97
F64.373599999999996
sg98
(lp336
S'74.304998074'
p337
aS'WRL+100'
p338
aS'3'
asg102
F356446.64000395878
sba(i__main__
Tr
p339
(dp340
g3
F3567637.0177057628
sg4
g5
sg8
I2
sg9
F25899.752356000001
sg10
F1
sg11
F0
sg12
I9223372036854775807
sg13
F2520100
sg14
I9223372036854775807
sg15
I00
sg16
F190.91588798583527
sg17
S'sig:Epping:1300'
p341
sg19
F96.560400000000001
sg20
I0
sg21
I9223372036854775807
sg22
F72.420299999999997
sg23
I3
sg24
I-1
sg25
I1
sg26
F0
sS'v'
F20.494300746996895
sg27
I930
sg28
I00
sg29
F-1
sg30
F73.779482689188825
sg31
g32
sg35
F26.822333333333333
sg36
F16093.4
sg37
I00
sg38
I00
sg39
I00
sg40
I9223372036854775807
sg41
S'green'
p342
sg43
F0.0078952130669320206
sg44
F2.1926520745611113
sg45
F214.60495560132574
sg46
F3133.9965292000002
sg47
g48
sS'a'
F0.0068777203954965473
sg49
F1
sg50
F35914.404968449198
sg51
F0
sg52
F0
sg53
I00
sg54
F214.60495560132574
sg55
I00
sg56
F0
sg57
F0.0068777203954965473
sg58
S'Epping'
p343
sg60
S'MAIN17'
p344
sg62
(lp345
S'3.024674063'
p346
aS'RLG'
p347
aS'Ruislip-Gardens'
p348
asg67
I00
sg68
I00
sg69
F0
sg70
F160.934
sg71
I5
sg72
S''
sg73
F0
sg74
F0
sS'm'
F249750
sg75
I0
sg76
(lp349
S'16.0934'
p350
aS'72.4203'
p351
asg80
F20.11675
sg81
F96.560400000000001
sg82
F3024.6740629999999
sg83
F0
sS'x'
F2192.6520745611115
sg84
(lp352
sg97
F96.560400000000001
sg98
(lp353
S'3.1339965292'
p354
aS'RLG+100'
p355
aS'1'
asg102
F366038.31000425789
sba(i__main__
Tr
p356
(dp357
g3
F3580188.8190685683
sg4
g5
sg8
I4
sg9
F25899.752356000001
sg10
F1
sg11
F0
sg12
I9223372036854775807
sg13
F2520100
sg14
I9223372036854775807
sg15
I00
sg16
F164.58277863168459
sg17
S'sig:Epping:SRL+100'
p358
sg19
F96.560400000000001
sg20
I0
sg21
I9223372036854775807
sg22
F72.420299999999997
sg23
I3
sg24
I-1
sg25
I1
sg26
F0
sS'v'
F19.028788825742321
sg27
I930
sg28
I00
sg29
F-1
sg30
F68.503639772672358
sg31
g32
sg35
F26.822333333333333
sg36
F16093.4
sg37
I00
sg38
I00
sg39
I00
sg40
I9223372036854775807
sg41
S'green'
p359
sg43
F0.0065562132322551665
sg44
F5.3348358926987185
sg45
F214.60495560132574
sg46
F5632.6900000000005
sg47
g48
sS'a'
F0.066695239052707758
sg49
F1
sg50
F323012.67824677104
sg51
F0
sg52
F0
sg53
I00
sg54
F214.60495560132574
sg55
I00
sg56
F0
sg57
F0.066695239052707758
sg58
S'Epping'
p360
sg60
S'BRCH6'
p361
sg62
(lp362
S'8.1629909084'
p363
aS'NHO'
p364
aS'Northolt'
p365
asg67
I00
sg68
I00
sg69
F0
sg70
F160.934
sg71
I8
sg72
S''
sg73
F0
sg74
F0
sS'm'
F249750
sg75
I0
sg76
g349
sg80
F20.11675
sg81
F96.560400000000001
sg82
F8162.9909083999992
sg83
F0
sS'x'
F5334.8358926987185
sg84
(lp366
sg97
F96.560400000000001
sg98
(lp367
S'5.63269'
p368
aS'3500'
p369
aS'1'
asg102
F362707.18000430812
sba(i__main__
Tr
p370
(dp371
g3
F3627434.3134143343
sg4
g5
sg8
I5
sg9
F25899.752356000001
sg10
F1
sg11
F0
sg12
I9223372036854775807
sg13
F2520100
sg14
I9223372036854775807
sg15
I00
sg16
F101.56799352354439
sg17
S'sig:Epping:6000'
p372
sg19
F96.560400000000001
sg20
I0
sg21
I9223372036854775807
sg22
F72.420299999999997
sg23
I3
sg24
I-1
sg25
I1
sg26
F0
sS'v'
F14.94273018794525
sg27
I930
sg28
I00
sg29
F-1
sg30
F53.793828676602899
sg31
g32
sg35
F26.822333333333333
sg36
F16093.4
sg37
I00
sg38
I00
sg39
I00
sg40
I9223372036854775807
sg41
S'green'
p373
sg43
F-0.00340022679495754
sg44
F11.104405258096822
sg45
F214.60495560132574
sg46
F11315.205166400001
sg47
g48
sS'a'
F-1.1000000000000001
sg49
F1
sg50
F0
sg51
F0
sg52
F0
sg53
I00
sg54
F214.60495560132574
sg55
I01
sg56
F0
sg57
F-1.1000000000000001
sg58
S'Epping'
p374
sg60
S'MAIN19'
p375
sg62
(lp376
S'11.2058827002'
p377
aS'GRF'
p378
aS'Greenford'
p379
asg67
I00
sg68
I00
sg69
F0
sg70
F160.934
sg71
I13
sg72
S''
sg73
F0
sg74
F0
sS'm'
F249750
sg75
I0
sg76
g349
sg80
F20.11675
sg81
F96.560400000000001
sg82
F11205.8827002
sg83
F0
sS'x'
F11104.405258096822
sg84
(lp380
sg97
F96.560400000000001
sg98
(lp381
S'11.3152051664'
p382
aS'GRF+100'
p383
aS'1'
asg102
F361595.19000421709
sba(i__main__
Tr
p384
(dp385
g3
F3629099.2055955408
sg4
g5
sg8
I10
sg9
F25899.752356000001
sg10
F1
sg11
F0
sg12
I9223372036854775807
sg13
F2520100
sg14
I9223372036854775807
sg15
I00
sg16
F0
sg17
S'sig:Epping:12850'
p386
sg19
F88.5137
sg20
I0
sg21
I9223372036854775807
sg22
F40.233499999999999
sg23
I3
sg24
I-1
sg25
I3
sg26
F12605.9
sS'v'
F0
sg27
I930
sg28
I01
sg29
F-1
sg30
F0
sg31
g32
sg35
F24.587138888888887
sg36
F22530.760000000002
sg37
I00
sg38
I00
sg39
I01
sg40
I9223372036854775807
sg41
S'green'
p387
sg43
F0.00056160690246616742
sg44
F21.518968931216499
sg45
F327.01707520202007
sg46
F21628.242128000002
sg47
g48
sS'a'
F0
sg49
F1
sg50
F0
sg51
F0
sg52
F0
sg53
I00
sg54
F327.01707520202007
sg55
I00
sg56
F0
sg57
F0
sg58
S'Epping'
p388
sg60
S'MAIN20'
p389
sg62
(lp390
S'23.705417266'
p391
aS'WCI'
p392
aS'White-City'
p393
asg67
I00
sg68
I00
sg69
F0
sg70
F160.934
sg71
I25
sg72
S''
sg73
F0
sg74
F0
sS'm'
F249750
sg75
I0
sg76
(lp394
S'22.53076'
p395
aS'40.2335'
p396
asg80
F11.175972222222223
sg81
F88.5137
sg82
F23705.417266
sg83
F0
sS'x'
F21518.968931216499
sg84
(lp397
sg97
F88.5137
sg98
(lp398
S'21.628242128'
p399
aS'EAC+100'
p400
aS'1'
asg102
F364807.74000443565
sba(i__main__
Tr
p401
(dp402
g3
F3577108.8148233816
sg4
g5
sg8
I14
sg9
F25899.752356000001
sg10
F1
sg11
F0
sg12
I9223372036854775807
sg13
F2520100
sg14
I9223372036854775807
sg15
I00
sg16
F125.96416691182256
sg17
S'sig:Epping:NOT+100'
p403
sg19
F64.373599999999996
sg20
I0
sg21
I9223372036854775807
sg22
F24.1401
sg23
I3
sg24
I-1
sg25
I5
sg26
F0
sS'v'
F16.647809108833268
sg27
I930
sg28
I00
sg29
F-1
sg30
F59.932112791799767
sg31
g32
sg35
F17.881555555555554
sg36
F35003.145000000004
sg37
I00
sg38
I00
sg39
I00
sg40
I9223372036854775807
sg41
S'green'
p404
sg43
F-0.00033162445358529078
sg44
F27.100529282578975
sg45
F187.35353266782403
sg46
F27568.316068
sg47
g48
sS'a'
F0.17048276182164523
sg49
F1
sg50
F721477.27088685299
sg51
F0
sg52
F0
sg53
I00
sg54
F187.35353266782403
sg55
I00
sg56
F0
sg57
F0.17048276182164523
sg58
S'Epping'
p405
sg60
S'MAIN21'
p406
sg62
(lp407
S'27.459041882'
p408
aS'QUW'
p409
aS'Queensway'
p410
asg67
I00
sg68
I00
sg69
F0
sg70
F160.934
sg71
I34
sg72
S''
sg73
F0
sg74
F0
sS'm'
F249750
sg75
I0
sg76
g77
sg80
F6.7055833333333332
sg81
F64.373599999999996
sg82
F27459.041882000001
sg83
F0
sS'x'
F27100.529282578977
sg84
(lp411
sg97
F64.373599999999996
sg98
(lp412
S'27.568316068'
p413
aS'QUW+100'
p414
aS'1'
asg102
F367097.06000442628
sba(i__main__
Tr
p415
(dp416
g3
F3477557.3960754746
sg4
g5
sg8
I26
sg9
F25899.752356000001
sg10
F1
sg11
F0
sg12
I9223372036854775807
sg13
F2520100
sg14
I9223372036854775807
sg15
I00
sg16
F83.0349110095908
sg17
S'sig:Epping:BTH+100'
p417
sg19
F80.466999999999999
sg20
I0
sg21
I9223372036854775807
sg22
F64.373599999999996
sg23
I2
sg24
I-1
sg25
I8
sg26
F0
sS'v'
F13.517450182049551
sg27
I930
sg28
I00
sg29
F-1
sg30
F48.662820655378383
sg31
g32
sg35
F22.351944444444445
sg36
F46670.860000000001
sg37
I00
sg38
I00
sg39
I00
sg40
I9223372036854775807
sg41
S'green'
p418
sg43
F-0.0035187465846713644
sg44
F39.545856719075594
sg45
F122.63140320075763
sg46
F40233.5
sg47
g48
sS'a'
F0.33037245293420636
sg49
F1
sg50
F1133831.5888577893
sg51
F0
sg52
F0
sg53
I00
sg54
F122.63140320075763
sg55
I00
sg56
F0
sg57
F0.33037245293420636
sg58
S'Epping'
p419
sg60
S'BRCH1'
p420
sg62
(lp421
S'41.853461644'
p422
aS'MIL'
p423
aS'Mile-End'
p424
asg67
I00
sg68
I00
sg69
F0
sg70
F160.934
sg71
I52
sg72
S''
sg73
F0
sg74
F0
sS'm'
F249750
sg75
I0
sg76
(lp425
S'46.67086'
p426
aS'64.3736'
p427
asg80
F17.881555555555554
sg81
F80.466999999999999
sg82
F41853.461644000003
sg83
F0
sS'x'
F39545.856719075593
sg84
(lp428
sg97
F80.466999999999999
sg98
(lp429
S'40.2335'
p430
aS'25000'
p431
aS'1'
asg102
F378817.12000456837
sba(i__main__
Tr
p432
(dp433
g3
F3504566.5215228391
sg4
g186
sg8
I16
sg9
F25899.752356000001
sg10
F1
sg11
F0
sg12
I9223372036854775807
sg13
F2520100
sg14
I9223372036854775807
sg15
I00
sg16
F133.37235609505137
sg17
S'sig:WestRuislip:SPA+100'
p434
sg19
F64.373599999999996
sg20
I0
sg21
I9223372036854775807
sg22
F40.233499999999999
sg23
I2
sg24
I-1
sg25
I7
sg26
F0
sS'v'
F17.130225728501113
sg27
I930
sg28
I00
sg29
F-1
sg30
F61.668812622604008
sg31
g190
sg35
F17.881555555555554
sg36
F49889.539999999994
sg37
I00
sg38
I00
sg39
I00
sg40
I9223372036854775807
sg41
S'green'
p435
sg43
F-0.0072590359402496842
sg44
F40.015658810273528
sg45
F132.85068680082065
sg121
F1774.1500000000001
sg46
F40233.5
sg47
g48
sS'a'
F0.14857160979602349
sg49
F1
sg50
F647118.58153630781
sg51
F0
sg52
F0
sg53
I00
sg54
F132.85068680082065
sg55
I00
sg56
F0
sg57
F0.14857160979602349
sg58
S'WestRuislip'
p436
sg60
S'BRCH2'
p437
sg62
(lp438
S'40.833140084'
p439
aS'CHL'
p440
aS'Chancery-Lane'
p441
asg67
I00
sg68
I00
sg69
F0
sg70
F160.934
sg71
I52
sg72
S''
sg73
F0
sg74
F0
sS'm'
F249750
sg75
I0
sg76
g265
sg80
F11.175972222222223
sg81
F64.373599999999996
sg82
F40833.140083999999
sg83
F0
sS'x'
F40015.658810273526
sg84
(lp442
sg97
F64.373599999999996
sg98
(lp443
S'40.2335'
p444
aS'25000'
p445
aS'1'
asg102
F362696.29000432719
sba(i__main__
Tr
p446
(dp447
g3
F3524925.9148348994
sg4
g186
sg8
I34
sg9
F25899.752356000001
sg10
F1
sg11
F0
sg12
I9223372036854775807
sg13
F2520100
sg14
I9223372036854775807
sg15
I00
sg16
F0
sg17
S'sig:WestRuislip:41000'
p448
sg19
F96.560400000000001
sg20
I0
sg21
I9223372036854775807
sg22
F64.373599999999996
sg23
I2
sg24
I0
sg25
I11
sg26
F12604.309999999999
sS'v'
F0
sg27
I930
sg28
I01
sg29
F-1
sg30
F0
sg31
g190
sg35
F26.822333333333333
sg36
F72903.101999999999
sg37
I00
sg38
I00
sg39
I01
sg40
I9223372036854775807
sg41
S'green'
p449
sg43
F-0.00072960654503920544
sg44
F66.34246658898897
sg45
F272.51422933501681
sg46
F66451.740741999994
sg47
g48
sS'a'
F0
sg49
F1
sg50
F0
sg51
F0
sg52
F0
sg53
I00
sg54
F272.51422933501681
sg55
I00
sg56
F0
sg57
F0
sg58
S'WestRuislip'
p450
sg60
S'BRCH3'
p451
sg62
(lp452
S'69.91375295'
p453
aS'SRL'
p454
aS'South-Ruislip'
p455
asg67
I00
sg68
I00
sg69
F0
sg70
F160.934
sg71
I88
sg72
S'WestRuislip'
p456
sg73
F0
sg74
F0
sS'm'
F249750
sg75
I0
sg76
g314
sg80
F17.881555555555554
sg81
F96.560400000000001
sg82
F69913.752950000009
sg83
F0
sS'x'
F66342.466588988973
sg84
(lp457
sg97
F96.560400000000001
sg98
(lp458
S'66.451740742'
p459
aS'NHO+100'
p460
aS'1'
asg102
F382041.77000462305
sba(i__main__
Tr
p461
(dp462
g3
F3569039.0982709588
sg4
g5
sg8
I35
sg9
F25899.752356000001
sg10
F1
sg11
F0
sg12
I9223372036854775807
sg13
F2520100
sg14
I9223372036854775807
sg15
I00
sg16
F1.0071055681818084
sg17
S'sig:Epping:37700'
p463
sg19
F96.560400000000001
sg20
I0
sg21
I9223372036854775807
sg22
F40.233499999999999
sg23
I2
sg24
I0
sg25
I10
sg26
F0
sS'v'
F1.4949999999999928
sg27
I930
sg28
I01
sg29
F-1
sg30
F5.3819999999999739
sg31
g32
sg35
F26.822333333333333
sg36
F73707.772000000012
sg37
I00
sg38
I00
sg39
I00
sg40
I9223372036854775807
sg41
S'green'
p464
sg43
F-0.0021114527462579632
sg44
F61.533012700534044
sg45
F405.36491613583757
sg46
F61641.423481999998
sg47
g48
sS'a'
F1.3
sg49
F1
sg50
F276460.97178454447
sg51
F0
sg52
F0
sg53
I00
sg54
F405.36491613583757
sg55
I00
sg56
F0
sg57
F1.3
sg58
S'Epping'
p465
sg60
S'BRCH4'
p466
sg62
(lp467
S'64.320008978'
p468
aS'DBD'
p469
aS'Debden'
p470
asg67
I00
sg68
I00
sg69
F0
sg70
F160.934
sg71
I78
sg72
S'Epping'
p471
sg73
F0
sg74
F0
sS'm'
F249750
sg75
I0
sg76
g147
sg80
F11.175972222222223
sg81
F96.560400000000001
sg82
F64320.008978000005
sg83
F0
sS'x'
F61533.012700534047
sg84
(lp472
sg97
F96.560400000000001
sg98
(lp473
S'61.641423482'
p474
aS'LOU+100'
p475
aS'1'
asg102
F366674.77000430744
sbasg97
F64.373599999999996
sg98
(lp476
S'30.465449936'
p477
aS'BST+100'
p478
aS'1'
asg102
F369417.84000435448
sb.