(i__main__
Tr
p1
(dp2
S'mechWear'
p3
F5161231.5363255283
sS'nextGRD'
p4
(lp5
S'0.0'
p6
aS'0.0'
p7
asS'STAcnt'
p8
I13
sS'maxSquareSpeed'
p9
F25899.752356000001
sS'consumptionCutOff'
p10
F1
sS'grade'
p11
F0
sS'nGRDx'
p12
I9223372036854775807
sS'admissionWear'
p13
F3600100
sS'transitionGRDx'
p14
I9223372036854775807
sS'coasting'
p15
I00
sS'BDzero'
p16
F97.627375559171711
sS'redisSIG'
p17
S'sig:WestRuislip:BTH+100'
p18
sS'maxTIV'
p19
F64.373599999999996
sS'CRVcnt'
p20
I0
sS'nCRVx'
p21
I9223372036854775807
sS'nTIVvl'
p22
F24.1401
sS'trip'
p23
I3
sS'pathCnt'
p24
I-1
sS'TIVcnt'
p25
I4
sS'waitSta'
p26
F0
sS'v'
F14.656721324476372
sS'pax'
p27
I930
sS'startingPhase'
p28
I00
sS'advTIV'
p29
F-1
sS'vK'
p30
F52.764196768114942
sS'nextCRV'
p31
(lp32
S'0.0'
p33
aS'0.0'
p34
asS'cv'
p35
F17.881555555555554
sS'nTIVx'
p36
F38302.292000000001
sS'sigBrake'
p37
I00
sS'sigSpotted'
p38
I00
sS'inSta'
p39
I00
sS'transitionCRVx'
p40
I9223372036854775807
sS'advSIGcol'
p41
S'green'
p42
sS'aGaussFactor'
p43
F0.002227794814280377
sS'PK'
p44
F35.317918349028567
sS'deltaBDtiv'
p45
F187.35353266782403
sS'nSIGx'
p46
F35888.281999999999
sS'nTIVtype'
p47
S'DEC'
p48
sS'a'
F0.26783306905692994
sS'ratioGRD'
p49
F1
sS'power'
p50
F997055.76772654103
sS'gradient'
p51
F0
sS'BDsta'
p52
F0
sS'initSwitchSeg'
p53
I00
sS'BDtiv'
p54
F187.35353266782403
sS'staBrake'
p55
I00
sS'waitReact'
p56
F0
sS'aFull'
p57
F0.26783306905692994
sS'segment'
p58
S'WestRuislip'
p59
sS'name'
p60
S'MAIN1'
p61
sS'nextSTA'
p62
(lp63
S'38.02709486'
p64
aS'LIV'
p65
aS'Liverpool-Street'
p66
aS'X'
asS'react'
p67
I00
sS'atSig'
p68
I00
sS'deltaBDsta'
p69
F0
sS'tgtVk'
p70
F160.934
sS'SIGcnt'
p71
I46
sS'pathBranch'
p72
S''
sS'oldGradient'
p73
F0
sS'critVk'
p74
F0
sS'm'
F249750
sS'GRDcnt'
p75
I0
sS'nextTIV'
p76
(lp77
S'38.302292'
p78
aS'24.1401'
p79
asS'nv'
p80
F6.7055833333333332
sS'maxVk'
p81
F64.373599999999996
sS'nSTAx'
p82
F38027.094859999997
sS'DBrt'
p83
F0
sS'x'
F35317.918349028565
sS'trs'
p84
(lp85
(i__main__
Tr
p86
(dp87
g3
F5139618.3009371376
sg4
g5
sg8
I14
sg9
F25899.752356000001
sg10
F1
sg11
F0
sg12
I9223372036854775807
sg13
F3600100
sg14
I9223372036854775807
sg15
I01
sg16
F20.412710422389559
sg17
S'sig:WestRuislip:LIV+100'
p88
sg19
F24.1401
sg20
I0
sg21
I9223372036854775807
sg22
F48.280200000000001
sg23
I3
sg24
I-1
sg25
I5
sg26
F0
sS'v'
F6.7013403830321163
sg27
I930
sg28
I00
sg29
F-1
sg30
F24.12482537891562
sg31
g32
sg35
F17.881555555555554
sg36
F39106.962
sg37
I00
sg38
I00
sg39
I00
sg40
I9223372036854775807
sg41
S'yellow'
p89
sg43
F-0.00027826780015633541
sg44
F38.500964727393558
sg45
F0
sg46
F38938.142233999999
sg47
S'INC'
p90
sS'a'
F0
sg49
F1
sg50
F1.8683085574252887
sg51
F0
sg52
F0
sg53
I00
sg54
F187.35353266782403
sg55
I00
sg56
F0
sg57
F0
sg58
S'WestRuislip'
p91
sg60
S'MAIN14'
p92
sg62
(lp93
S'38.828868048'
p94
aS'BNK'
p95
aS'Bank'
p96
aS'X'
asg67
I00
sg68
I00
sg69
F0
sg70
F160.934
sg71
I50
sg72
S''
sg73
F0
sg74
F0
sS'm'
F249750
sg75
I0
sg76
(lp97
S'39.106962'
p98
aS'48.2802'
p99
asg80
F6.7055833333333332
sg81
F24.1401
sg82
F38828.868047999997
sg83
F0
sS'x'
F38500.964727393555
sg84
(lp100
sS'cTIVvl'
p101
F24.1401
sS'nextSIG'
p102
(lp103
S'38.938142234'
p104
aS'BNK+100'
p105
aS'1'
asS'brakeWear'
p106
F508890.91000797268
sba(i__main__
Tr
p107
(dp108
g3
F5110957.0825402234
sg4
g5
sg8
I16
sg9
F25899.752356000001
sg10
F1
sg11
F0
sg12
I9223372036854775807
sg13
F3600100
sg14
I9223372036854775807
sg15
I01
sg16
F145.05541350688839
sg17
S'sig:WestRuislip:25000'
p109
sg19
F64.373599999999996
sg20
I0
sg21
I9223372036854775807
sg22
F40.233499999999999
sg23
I3
sg24
I-1
sg25
I7
sg26
F0
sS'v'
F17.863983590318103
sg27
I930
sg28
I00
sg29
F-1
sg30
F64.310340925145169
sg31
g32
sg35
F17.881555555555554
sg36
F49889.539999999994
sg37
I00
sg38
I00
sg39
I00
sg40
I9223372036854775807
sg41
S'green'
p110
sg43
F-0.0021648228231562075
sg44
F40.639206295039166
sg45
F132.85068680082065
sg46
F40942.414270000001
sg47
g48
sS'a'
F0
sg49
F1
sg50
F8.6396310286969982
sg51
F0
sg52
F0
sg53
I00
sg54
F132.85068680082065
sg55
I00
sg56
F0
sg57
F0
sg58
S'WestRuislip'
p111
sg60
S'MAIN2'
p112
sg62
(lp113
S'40.833140084'
p114
aS'CHL'
p115
aS'Chancery-Lane'
p116
asg67
I00
sg68
I00
sg69
F0
sg70
F160.934
sg71
I53
sg72
S''
sg73
F0
sg74
F0
sS'm'
F249750
sg75
I0
sg76
(lp117
S'49.88954'
p118
aS'40.2335'
p119
asg80
F11.175972222222223
sg81
F64.373599999999996
sg82
F40833.140083999999
sg83
F0
sS'x'
F40639.206295039163
sg84
(lp120
sg101
F64.373599999999996
sg102
(lp121
S'40.94241427'
p122
aS'CHL+100'
p123
aS'1'
asg106
F509259.9600080754
sba(i__main__
Tr
p124
(dp125
g3
F5055997.5784123987
sg4
g5
sg8
I19
sg9
F25899.752356000001
sg10
F1
sg11
F0
sg12
I9223372036854775807
sg13
F3600100
sg14
I9223372036854775807
sg15
I00
sg16
F63.204944088330556
sg17
S'sig:WestRuislip:TTT+100'
p126
sg19
F64.373599999999996
sg20
I0
sg21
I9223372036854775807
sg22
F40.233499999999999
sg23
I3
sg24
I-1
sg25
I7
sg26
F0
sS'v'
F11.786483590317927
sg27
I930
sg28
I00
sg29
F-1
sg30
F42.431340925144539
sg31
g32
sg35
F17.881555555555554
sg36
F49889.539999999994
sg37
I00
sg38
I00
sg39
I00
sg40
I9223372036854775807
sg41
S'green'
p127
sg43
F0.00078686079199145236
sg44
F43.466837799025981
sg45
F132.85068680082065
sS'sigPoll'
p128
F245.72999999999999
sg46
F43639.185308
sg47
g48
sS'a'
F-1.1000000000000001
sg49
F1
sg50
F0
sg51
F0
sg52
F0
sg53
I00
sg54
F132.85068680082065
sg55
I01
sg56
F0
sg57
F-1.1000000000000001
sg58
S'WestRuislip'
p129
sg60
S'MAIN15'
p130
sg62
(lp131
S'43.529911122'
p132
aS'OXF'
p133
aS'Oxford-Circus'
p134
aS'X'
asg67
I00
sg68
I00
sg69
F0
sg70
F160.934
sg71
I57
sg72
S''
sg73
F0
sg74
F0
sS'm'
F249750
sg75
I0
sg76
g117
sg80
F11.175972222222223
sg81
F64.373599999999996
sg82
F43529.911122000005
sg83
F0
sS'x'
F43466.837799025983
sg84
(lp135
sg101
F64.373599999999996
sg102
(lp136
S'43.639185308'
p137
aS'OXF+100'
p138
aS'1'
asg106
F510312.66000807687
sba(i__main__
Tr
p139
(dp140
g3
F5055744.8344699675
sg4
g5
sg8
I29
sg9
F25899.752356000001
sg10
F1
sg11
F0
sg12
I9223372036854775807
sg13
F3600100
sg14
I9223372036854775807
sg15
I00
sg16
F139.63693889261395
sg17
S'sig:WestRuislip:EAC+100'
p141
sg19
F80.466999999999999
sg20
I0
sg21
I9223372036854775807
sg22
F72.420299999999997
sg23
I3
sg24
I-1
sg25
I9
sg26
F0
sS'v'
F17.527812417011059
sg27
I930
sg28
I00
sg29
F-1
sg30
F63.100124701239814
sg31
g32
sg35
F22.351944444444445
sg36
F53912.889999999999
sg37
I00
sg38
I00
sg39
I00
sg40
I9223372036854775807
sg41
S'green'
p142
sg43
F-0.0011729275098585549
sg44
F53.421132903624482
sg45
F64.722129467066509
sg46
F53912.889999999999
sg47
g48
sS'a'
F0.1308947743540021
sg49
F1
sg50
F583472.07683026034
sg51
F0
sg52
F0
sg53
I00
sg54
F64.722129467066509
sg55
I00
sg56
F0
sg57
F0.1308947743540021
sg58
S'WestRuislip'
p143
sg60
S'MAIN3'
p144
sg62
(lp145
S'55.063729034'
p146
aS'NAC'
p147
aS'North-Acton'
p148
asg67
I00
sg68
I00
sg69
F0
sg70
F160.934
sg71
I72
sg72
S''
sg73
F0
sg74
F0
sS'm'
F249750
sg75
I0
sg76
(lp149
S'53.91289'
p150
aS'72.4203'
p151
asg80
F20.11675
sg81
F80.466999999999999
sg82
F55063.729033999996
sg83
F0
sS'x'
F53421.132903624479
sg84
(lp152
sg101
F80.466999999999999
sg102
(lp153
S'53.91289'
p154
aS'33500'
p155
aS'1'
asg106
F533507.15000806667
sba(i__main__
Tr
p156
(dp157
g3
F5095122.3256533872
sg4
g5
sg8
I32
sg9
F25899.752356000001
sg10
F1
sg11
F0
sg12
I9223372036854775807
sg13
F3600100
sg14
I9223372036854775807
sg15
I00
sg16
F151.1325445591591
sg17
S'sig:WestRuislip:PVL+100'
p158
sg19
F96.560400000000001
sg20
I0
sg21
I9223372036854775807
sg22
F64.373599999999996
sg23
I3
sg24
I0
sg25
I11
sg26
F0
sS'v'
F18.234853150862538
sg27
I930
sg28
I00
sg29
F-1
sg30
F65.645471343105143
sg31
g32
sg35
F26.822333333333333
sg36
F72903.101999999999
sg37
I00
sg38
I00
sg39
I00
sg40
I9223372036854775807
sg41
S'green'
p159
sg43
F0.00022433009078320554
sg44
F61.329920468965994
sg45
F272.51422933501681
sg46
F61557.254999999997
sg47
g48
sS'a'
F0.10020181808052762
sg49
F1
sg50
F464841.87682903494
sg51
F0
sg52
F0
sg53
I00
sg54
F272.51422933501681
sg55
I00
sg56
F0
sg57
F0.10020181808052762
sg58
S'WestRuislip'
p160
sg60
S'BRCH7'
p161
sg62
(lp162
S'63.299526484'
p163
aS'GRF'
p164
aS'Greenford'
p165
asg67
I00
sg68
I00
sg69
F0
sg70
F160.934
sg71
I82
sg72
S'WestRuislip'
p166
sg73
F0
sg74
F0
sS'm'
F249750
sg75
I0
sg76
(lp167
S'72.903102'
p168
aS'64.3736'
p169
asg80
F17.881555555555554
sg81
F96.560400000000001
sg82
F63299.526483999995
sg83
F0
sS'x'
F61329.920468965996
sg84
(lp170
sg101
F96.560400000000001
sg102
(lp171
S'61.557255'
p172
aS'38250'
p173
aS'1'
asg106
F523534.33000835404
sba(i__main__
Tr
p174
(dp175
g3
F5170178.0039675245
sg4
(lp176
S'0.0'
p177
aS'0.0'
p178
asg8
I2
sg9
F25899.752356000001
sg10
F1
sg11
F0
sg12
I9223372036854775807
sg13
F3600100
sg14
I9223372036854775807
sg15
I00
sg16
F0
sg17
S'sig:Epping:WRL+100'
p179
sg19
F96.560400000000001
sg20
I0
sg21
I9223372036854775807
sg22
F72.420299999999997
sg23
I4
sg24
I-1
sg25
I1
sg26
F18008.584999999999
sS'v'
F0
sg27
I930
sg28
I01
sg29
F-1
sg30
F0
sg31
(lp180
S'0.0'
p181
aS'0.0'
p182
asg35
F26.822333333333333
sg36
F16093.4
sg37
I00
sg38
I00
sg39
I01
sg40
I9223372036854775807
sg41
S'green'
p183
sg43
F-0.0036834326414898798
sg44
F0.32797800075873318
sg45
F214.60495560132574
sg46
F437.30273951999999
sg47
g48
sS'a'
F0
sg49
F1
sg50
F0
sg51
F0
sg52
F0
sg53
I00
sg54
F214.60495560132574
sg55
I00
sg56
F0
sg57
F0
sg58
S'Epping'
p184
sg60
S'BRCH8'
p185
sg62
(lp186
S'3.024674063'
p187
aS'RLG'
p188
aS'Ruislip-Gardens'
p189
asg67
I00
sg68
I00
sg69
F0
sg70
F160.934
sg71
I2
sg72
S''
sg73
F0
sg74
F0
sS'm'
F249750
sg75
I0
sg76
(lp190
S'16.0934'
p191
aS'72.4203'
p192
asg80
F20.11675
sg81
F96.560400000000001
sg82
F3024.6740629999999
sg83
F0
sS'x'
F327.97800075873317
sg84
(lp193
sg101
F96.560400000000001
sg102
(lp194
S'0.43730273952'
p195
aS'WRL+100'
p196
aS'1'
asg106
F518454.75000818731
sba(i__main__
Tr
p197
(dp198
g3
F5163943.1679281881
sg4
g176
sg8
I5
sg9
F25899.752356000001
sg10
F1
sg11
F0
sg12
I9223372036854775807
sg13
F3600100
sg14
I9223372036854775807
sg15
I00
sg16
F43.83201966989084
sg17
S'sig:Epping:4750'
p199
sg19
F96.560400000000001
sg20
I0
sg21
I9223372036854775807
sg22
F72.420299999999997
sg23
I4
sg24
I-1
sg25
I1
sg26
F0
sS'v'
F9.8228884153314748
sg27
I930
sg28
I00
sg29
F-1
sg30
F35.362398295193309
sg31
g180
sg35
F26.822333333333333
sg36
F16093.4
sg37
I00
sg38
I00
sg39
I00
sg40
I9223372036854775807
sg41
S'green'
p200
sg43
F-0.0021808404041259938
sg44
F8.2156625648133286
sg45
F214.60495560132574
sg46
F8272.3133746000003
sg47
g48
sS'a'
F0.5976090965017008
sg49
F1
sg50
F1489768.1347070842
sg51
F0
sg52
F0
sg53
I00
sg54
F214.60495560132574
sg55
I00
sg56
F0
sg57
F0.5976090965017008
sg58
S'Epping'
p201
sg60
S'MAIN7'
p202
sg62
(lp203
S'11.2058827002'
p204
aS'GRF'
p205
aS'Greenford'
p206
asg67
I00
sg68
I00
sg69
F0
sg70
F160.934
sg71
I11
sg72
S''
sg73
F0
sg74
F0
sS'm'
F249750
sg75
I0
sg76
g190
sg80
F20.11675
sg81
F96.560400000000001
sg82
F11205.8827002
sg83
F0
sS'x'
F8215.6625648133286
sg84
(lp207
sg101
F96.560400000000001
sg102
(lp208
S'8.2723133746'
p209
aS'NHO+100'
p210
aS'1'
asg106
F518606.00000830129
sba(i__main__
Tr
p211
(dp212
g3
F5188509.9008582504
sg4
g176
sg8
I9
sg9
F25899.752356000001
sg10
F1
sg11
F0
sg12
I9223372036854775807
sg13
F3600100
sg14
I9223372036854775807
sg15
I00
sg16
F187.57920374138376
sg17
S'sig:Epping:12850'
p213
sg19
F88.5137
sg20
I0
sg21
I9223372036854775807
sg22
F40.233499999999999
sg23
I4
sg24
I-1
sg25
I3
sg26
F0
sS'v'
F20.314455769722972
sg27
I930
sg28
I00
sg29
F-1
sg30
F73.132040771002707
sg31
g180
sg35
F24.587138888888887
sg36
F22530.760000000002
sg37
I00
sg38
I00
sg39
I00
sg40
I9223372036854775807
sg41
S'green'
p214
sg43
F-0.00054987739571687154
sg44
F20.923260497304643
sg45
F327.01707520202007
sg46
F21628.242128000002
sg47
g48
sS'a'
F0.014103227729372565
sg49
F1
sg50
F72979.156750492592
sg51
F0
sg52
F0
sg53
I00
sg54
F327.01707520202007
sg55
I00
sg56
F0
sg57
F0.014103227729372565
sg58
S'Epping'
p215
sg60
S'MAIN8'
p216
sg62
(lp217
S'21.518967942'
p218
aS'EAC'
p219
aS'East-Acton'
p220
asg67
I00
sg68
I00
sg69
F0
sg70
F160.934
sg71
I25
sg72
S''
sg73
F0
sg74
F0
sS'm'
F249750
sg75
I0
sg76
(lp221
S'22.53076'
p222
aS'40.2335'
p223
asg80
F11.175972222222223
sg81
F88.5137
sg82
F21518.967941999999
sg83
F0
sS'x'
F20923.260497304644
sg84
(lp224
sg101
F88.5137
sg102
(lp225
S'21.628242128'
p226
aS'EAC+100'
p227
aS'1'
asg106
F514650.51000830147
sba(i__main__
Tr
p228
(dp229
g3
F5118028.6981874211
sg4
g176
sg8
I14
sg9
F25899.752356000001
sg10
F1
sg11
F0
sg12
I9223372036854775807
sg13
F3600100
sg14
I9223372036854775807
sg15
I00
sg16
F1.9542428178726736
sg17
S'sig:Epping:NOT+100'
p230
sg19
F64.373599999999996
sg20
I0
sg21
I9223372036854775807
sg22
F24.1401
sg23
I4
sg24
I-1
sg25
I5
sg26
F0
sS'v'
F2.0679835903184483
sg27
I930
sg28
I00
sg29
F-1
sg30
F7.4447409251464141
sg31
g180
sg35
F17.881555555555554
sg36
F35003.145000000004
sg37
I00
sg38
I00
sg39
I00
sg40
I9223372036854775807
sg41
S'green'
p231
sg43
F0.00041982021923145862
sg44
F27.457092560720863
sg45
F187.35353266782403
sg46
F27568.316068
sg47
g48
sS'a'
F-1.1000000000000001
sg49
F1
sg50
F0
sg51
F0
sg52
F0
sg53
I00
sg54
F187.35353266782403
sg55
I01
sg56
F0
sg57
F-1.1000000000000001
sg58
S'Epping'
p232
sg60
S'MAIN9'
p233
sg62
(lp234
S'27.459041882'
p235
aS'QUW'
p236
aS'Queensway'
p237
asg67
I00
sg68
I00
sg69
F0
sg70
F160.934
sg71
I34
sg72
S''
sg73
F0
sg74
F0
sS'm'
F249750
sg75
I0
sg76
(lp238
S'35.003145'
p239
aS'24.1401'
p240
asg80
F6.7055833333333332
sg81
F64.373599999999996
sg82
F27459.041882000001
sg83
F0
sS'x'
F27457.092560720863
sg84
(lp241
sg101
F64.373599999999996
sg102
(lp242
S'27.568316068'
p243
aS'QUW+100'
p244
aS'1'
asg106
F524653.58000846207
sba(i__main__
Tr
p245
(dp246
g3
F5055070.3457811009
sg4
g176
sg8
I23
sg9
F25899.752356000001
sg10
F1
sg11
F0
sg12
I9223372036854775807
sg13
F3600100
sg14
I9223372036854775807
sg15
I00
sg16
F0
sg17
S'sig:Epping:21350'
p247
sg19
F24.1401
sg20
I0
sg21
I9223372036854775807
sg22
F48.280200000000001
sg23
I3
sg24
I-1
sg25
I6
sg26
F18001.705000000002
sS'v'
F0
sg27
I930
sg28
I01
sg29
F35003.145000000004
sg30
F0
sg31
g180
sg35
F17.881555555555554
sg36
F35968.749000000003
sg37
I00
sg38
I00
sg39
I01
sg40
I9223372036854775807
sg41
S'green'
p248
sg43
F0.0035974999384950422
sg44
F34.893066309798122
sg45
F0
sg46
F35002.501264000006
sg47
g90
sS'a'
F0
sg49
F1
sg50
F0
sg51
F0
sg52
F0
sg53
I00
sg54
F187.35353266782403
sg55
I00
sg56
F0
sg57
F0
sg58
S'Epping'
p249
sg60
S'MAIN11'
p250
sg62
(lp251
S'35.694839332'
p252
aS'BNK'
p253
aS'Bank'
p254
aS'X'
asg67
I00
sg68
I00
sg69
F0
sg70
F160.934
sg71
I45
sg72
S''
sg73
F0
sg74
F0
sS'm'
F249750
sg75
I0
sg76
(lp255
S'35.968749'
p256
aS'48.2802'
p257
asg80
F6.7055833333333332
sg81
F24.1401
sg82
F35694.839332000003
sg83
F0
sS'x'
F34893.066309798123
sg84
(lp258
sg101
F24.1401
sg102
(lp259
S'35.002501264'
p260
aS'SPA+100'
p261
aS'1'
asg106
F541510.09000797954
sba(i__main__
Tr
p262
(dp263
g3
F5002214.9304911485
sg4
g176
sg8
I26
sg9
F25899.752356000001
sg10
F1
sg11
F0
sg12
I9223372036854775807
sg13
F3600100
sg14
I9223372036854775807
sg15
I00
sg16
F139.86592436142132
sg17
S'sig:Epping:BTH+100'
p264
sg19
F80.466999999999999
sg20
I0
sg21
I9223372036854775807
sg22
F64.373599999999996
sg23
I3
sg24
I-1
sg25
I8
sg26
F0
sS'v'
F17.542174437428656
sg27
I930
sg28
I00
sg29
F-1
sg30
F63.151827974743163
sg31
g180
sg35
F22.351944444444445
sg36
F46670.860000000001
sg37
I00
sg38
I00
sg39
I00
sg40
I9223372036854775807
sg41
S'green'
p265
sg43
F-0.0013577210811504432
sg44
F39.848440300265729
sg45
F122.63140320075763
sg46
F40233.5
sg47
g48
sS'a'
F0.13026219945574519
sg49
F1
sg50
F581132.2847452116
sg51
F0
sg52
F0
sg53
I00
sg54
F122.63140320075763
sg55
I00
sg56
F0
sg57
F0.13026219945574519
sg58
S'Epping'
p266
sg60
S'MAIN18'
p267
sg62
(lp268
S'41.853461644'
p269
aS'MIL'
p270
aS'Mile-End'
p271
asg67
I00
sg68
I00
sg69
F0
sg70
F160.934
sg71
I52
sg72
S''
sg73
F0
sg74
F0
sS'm'
F249750
sg75
I0
sg76
(lp272
S'46.67086'
p273
aS'64.3736'
p274
asg80
F17.881555555555554
sg81
F80.466999999999999
sg82
F41853.461644000003
sg83
F0
sS'x'
F39848.440300265727
sg84
(lp275
sg101
F80.466999999999999
sg102
(lp276
S'40.2335'
p277
aS'25000'
p278
aS'1'
asg106
F541332.22000784962
sba(i__main__
Tr
p279
(dp280
g3
F5014007.7456377288
sg4
g176
sg8
I28
sg9
F25899.752356000001
sg10
F1
sg11
F0
sg12
I9223372036854775807
sg13
F3600100
sg14
I9223372036854775807
sg15
I00
sg16
F6.6624601136362767
sg17
S'sig:Epping:27900'
p281
sg19
F80.466999999999999
sg20
I0
sg21
I9223372036854775807
sg22
F64.373599999999996
sg23
I3
sg24
I-1
sg25
I8
sg26
F0
sS'v'
F3.8349999999999751
sg27
I930
sg28
I00
sg29
F-1
sg30
F13.80599999999991
sg31
g180
sg35
F22.351944444444445
sg36
F46670.860000000001
sg37
I00
sg38
I00
sg39
I00
sg40
I9223372036854775807
sg41
S'green'
p282
sg43
F0.0011394000908169911
sg44
F45.521664249533742
sg45
F122.63140320075763
sg46
F45625.271802000003
sg47
g48
sS'a'
F1.3
sg49
F1
sg50
F1036201.0693997132
sg51
F0
sg52
F0
sg53
I00
sg54
F122.63140320075763
sg55
I00
sg56
F0
sg57
F1.3
sg58
S'Epping'
p283
sg60
S'MAIN12'
p284
sg62
(lp285
S'47.684261398'
p286
aS'LEY'
p287
aS'Leyton'
p288
asg67
I00
sg68
I00
sg69
F0
sg70
F160.934
sg71
I58
sg72
S''
sg73
F0
sg74
F0
sS'm'
F249750
sg75
I0
sg76
g272
sg80
F17.881555555555554
sg81
F80.466999999999999
sg82
F47684.261397999995
sg83
F0
sS'x'
F45521.664249533744
sg84
(lp289
sg101
F80.466999999999999
sg102
(lp290
S'45.625271802'
p291
aS'STR+100'
p292
aS'1'
asg106
F541362.47000795195
sba(i__main__
Tr
p293
(dp294
g3
F5008970.3759818627
sg4
g176
sg8
I32
sg9
F25899.752356000001
sg10
F1
sg11
F0
sg12
I9223372036854775807
sg13
F3600100
sg14
I9223372036854775807
sg15
I00
sg16
F192.49838297556457
sg17
S'sig:Epping:34700'
p295
sg19
F96.560400000000001
sg20
I0
sg21
I9223372036854775807
sg22
F40.233499999999999
sg23
I3
sg24
I0
sg25
I10
sg26
F0
sS'v'
F20.579046605515643
sg27
I930
sg28
I00
sg29
F-1
sg30
F74.084567779856314
sg31
g180
sg35
F26.822333333333333
sg36
F73707.772000000012
sg37
I00
sg38
I00
sg39
I00
sg40
I9223372036854775807
sg41
S'green'
p296
sg43
F-0.0032063485336909221
sg44
F56.202364254821291
sg45
F405.36491613583757
sg46
F56557.84029
sg47
g48
sS'a'
F0.0034824064487339128
sg49
F1
sg50
F18266.403095839072
sg51
F0
sg52
F0
sg53
I00
sg54
F405.36491613583757
sg55
I00
sg56
F0
sg57
F0.0034824064487339128
sg58
S'Epping'
p297
sg60
S'MAIN13'
p298
sg62
(lp299
S'56.448566104'
p300
aS'WOO'
p301
aS'Woodford'
p302
asg67
I00
sg68
I00
sg69
F0
sg70
F160.934
sg71
I72
sg72
S'Epping'
p303
sg73
F0
sg74
F0
sS'm'
F249750
sg75
I0
sg76
(lp304
S'73.707772'
p305
aS'40.2335'
p306
asg80
F11.175972222222223
sg81
F96.560400000000001
sg82
F56448.566103999998
sg83
F0
sS'x'
F56202.364254821288
sg84
(lp307
sg101
F96.560400000000001
sg102
(lp308
S'56.55784029'
p309
aS'WOO+100'
p310
aS'1'
asg106
F536272.00000796898
sba(i__main__
Tr
p311
(dp312
g3
F5084991.3602487566
sg4
g176
sg8
I37
sg9
F25899.752356000001
sg10
F1
sg11
F0
sg12
I9223372036854775807
sg13
F3600100
sg14
I9223372036854775807
sg15
I00
sg16
F193.97528313386456
sg17
S'sig:Epping:44900'
p313
sg19
F96.560400000000001
sg20
I0
sg21
I9223372036854775807
sg22
F40.233499999999999
sg23
I3
sg24
I0
sg25
I10
sg26
F0
sS'v'
F20.657823974600454
sg27
I930
sg28
I00
sg29
F-1
sg30
F74.368166308561641
sg31
g180
sg35
F26.822333333333333
sg36
F73707.772000000012
sg37
I00
sg38
I00
sg39
I00
sg40
I9223372036854775807
sg41
S'green'
p314
sg43
F-0.00047400793606309735
sg44
F72.557713874067701
sg45
F405.36491613583757
sg46
F73064.036000000007
sg47
g48
sS'a'
F0.00033145348736461394
sg49
F1
sg50
F1755.867222671139
sg51
F0
sg52
F0
sg53
I00
sg54
F405.36491613583757
sg55
I00
sg56
F0
sg57
F0.00033145348736461394
sg58
S'Epping'
p315
sg60
S'BRCH9'
p316
sg62
(lp317
S'74.031732142'
p318
aS'EPP'
p319
aS'Epping'
p320
asg67
I00
sg68
I00
sg69
F0
sg70
F160.934
sg71
I92
sg72
S'Epping'
p321
sg73
F0
sg74
F0
sS'm'
F249750
sg75
I0
sg76
g304
sg80
F11.175972222222223
sg81
F96.560400000000001
sg82
F74031.732141999993
sg83
F0
sS'x'
F72557.713874067704
sg84
(lp322
sg101
F96.560400000000001
sg102
(lp323
S'73.064036'
p324
aS'45400'
p325
aS'1'
asg106
F532765.42000796774
sba(i__main__
Tr
p326
(dp327
g3
F5044997.9834840503
sg4
g5
sg8
I1
sg9
F25899.752356000001
sg10
F1
sg11
F0
sg12
I9223372036854775807
sg13
F3600100
sg14
I9223372036854775807
sg15
I00
sg16
F129.1677737887116
sg17
S'sig:WestRuislip:EPP+100'
p328
sg19
F96.560400000000001
sg20
I0
sg21
I9223372036854775807
sg22
F72.420299999999997
sg23
I4
sg24
I-1
sg25
I1
sg26
F0
sS'v'
F16.85812031093807
sg27
I930
sg28
I00
sg29
F-1
sg30
F60.68923311937705
sg31
g32
sg35
F26.822333333333333
sg36
F24140.099999999999
sg37
I00
sg38
I00
sg39
I00
sg40
I9223372036854775807
sg41
S'green'
p329
sg43
F-0.0023114133384451257
sg44
F0.84719518811278216
sg45
F214.60495560132574
sg46
F1448.4060000000002
sg47
g48
sS'a'
F0.16086449338080297
sg49
F1
sg50
F689441.63167598657
sg51
F0
sg52
F0
sg53
I00
sg54
F214.60495560132574
sg55
I00
sg56
F0
sg57
F0.16086449338080297
sg58
S'WestRuislip'
p330
sg60
S'MAIN16'
p331
sg62
(lp332
S'5.3751795066'
p333
aS'THB'
p334
aS'Theydon-Bois'
p335
asg67
I00
sg68
I00
sg69
F0
sg70
F160.934
sg71
I3
sg72
S''
sg73
F0
sg74
F0
sS'm'
F249750
sg75
I0
sg76
(lp336
S'24.1401'
p337
aS'72.4203'
p338
asg80
F20.11675
sg81
F96.560400000000001
sg82
F5375.1795066000004
sg83
F0
sS'x'
F847.19518811278215
sg84
(lp339
sg101
F96.560400000000001
sg102
(lp340
S'1.448406'
p341
aS'900'
p342
aS'1'
asg106
F516719.61000809539
sba(i__main__
Tr
p343
(dp344
g3
F5117549.6640814357
sg4
g5
sg8
I1
sg9
F25899.752356000001
sg10
F1
sg11
F0
sg12
I9223372036854775807
sg13
F3600100
sg14
I9223372036854775807
sg15
I00
sg16
F25.933705934939329
sg17
S'sig:WestRuislip:2900'
p345
sg19
F96.560400000000001
sg20
I0
sg21
I9223372036854775807
sg22
F72.420299999999997
sg23
I4
sg24
I-1
sg25
I1
sg26
F0
sS'v'
F7.5479199576659664
sg27
I930
sg28
I00
sg29
F-1
sg30
F27.17251184759748
sg31
g32
sg35
F26.822333333333333
sg36
F24140.099999999999
sg37
I00
sg38
I00
sg39
I00
sg40
I9223372036854775807
sg41
S'green'
p346
sg43
F0.004578342993525975
sg44
F5.349294573399809
sg45
F214.60495560132574
sg46
F5484.5019728000007
sg47
g48
sS'a'
F-1.1000000000000001
sg49
F1
sg50
F0
sg51
F0
sg52
F0
sg53
I00
sg54
F214.60495560132574
sg55
I01
sg56
F0
sg57
F-1.1000000000000001
sg58
S'WestRuislip'
p347
sg60
S'MAIN17'
p348
sg62
g332
sg67
I00
sg68
I00
sg69
F0
sg70
F160.934
sg71
I8
sg72
S''
sg73
F0
sg74
F0
sS'm'
F249750
sg75
I0
sg76
g336
sg80
F20.11675
sg81
F96.560400000000001
sg82
F5375.1795066000004
sg83
F0
sS'x'
F5349.2945733998085
sg84
(lp349
sg101
F96.560400000000001
sg102
(lp350
S'5.4845019728'
p351
aS'THB+100'
p352
aS'1'
asg106
F522597.79000825633
sba(i__main__
Tr
p353
(dp354
g3
F5139672.0638987459
sg4
g5
sg8
I2
sg9
F25899.752356000001
sg10
F1
sg11
F0
sg12
I9223372036854775807
sg13
F3600100
sg14
I9223372036854775807
sg15
I00
sg16
F194.01838530918167
sg17
S'sig:WestRuislip:5500'
p355
sg19
F96.560400000000001
sg20
I0
sg21
I9223372036854775807
sg22
F72.420299999999997
sg23
I4
sg24
I-1
sg25
I1
sg26
F0
sS'v'
F20.660118518848058
sg27
I930
sg28
I00
sg29
F-1
sg30
F74.376426667853011
sg31
g32
sg35
F26.822333333333333
sg36
F24140.099999999999
sg37
I00
sg38
I00
sg39
I00
sg40
I9223372036854775807
sg41
S'green'
p356
sg43
F0.0023194879779755446
sg44
F8.970008314028675
sg45
F214.60495560132574
sg46
F9656.0400000000009
sg47
g48
sS'a'
F0.00023975007801130632
sg49
F1
sg50
F1273.4387282926164
sg51
F0
sg52
F0
sg53
I00
sg54
F214.60495560132574
sg55
I00
sg56
F0
sg57
F0.00023975007801130632
sg58
S'WestRuislip'
p357
sg60
S'BRCH6'
p358
sg62
(lp359
S'10.18551286'
p360
aS'DBD'
p361
aS'Debden'
p362
asg67
I00
sg68
I00
sg69
F0
sg70
F160.934
sg71
I13
sg72
S''
sg73
F0
sg74
F0
sS'm'
F249750
sg75
I0
sg76
g336
sg80
F20.11675
sg81
F96.560400000000001
sg82
F10185.512859999999
sg83
F0
sS'x'
F8970.0083140286752
sg84
(lp363
sg101
F96.560400000000001
sg102
(lp364
S'9.65604'
p365
aS'6000'
p366
aS'1'
asg106
F511987.30000809563
sba(i__main__
Tr
p367
(dp368
g3
F5178785.1672280887
sg4
g5
sg8
I4
sg9
F25899.752356000001
sg10
F1
sg11
F0
sg12
I9223372036854775807
sg13
F3600100
sg14
I9223372036854775807
sg15
I00
sg16
F185.50957489874889
sg17
S'sig:WestRuislip:8700'
p369
sg19
F96.560400000000001
sg20
I0
sg21
I9223372036854775807
sg22
F72.420299999999997
sg23
I4
sg24
I-1
sg25
I1
sg26
F0
sS'v'
F20.202099612792146
sg27
I930
sg28
I00
sg29
F-1
sg30
F72.72755860605173
sg31
g32
sg35
F26.822333333333333
sg36
F24140.099999999999
sg37
I00
sg38
I00
sg39
I00
sg40
I9223372036854775807
sg41
S'green'
p370
sg43
F1.1421553126494358e-05
sg44
F14.332958128612047
sg45
F214.60495560132574
sg46
F14644.994000000001
sg47
g48
sS'a'
F0.018631709968921533
sg49
F1
sg50
F95869.45492137791
sg51
F0
sg52
F0
sg53
I00
sg54
F214.60495560132574
sg55
I00
sg56
F0
sg57
F0.018631709968921533
sg58
S'WestRuislip'
p371
sg60
S'MAIN19'
p372
sg62
(lp373
S'15.4331360782'
p374
aS'BHH'
p375
aS'Buckhurst-Hill'
p376
asg67
I00
sg68
I00
sg69
F0
sg70
F160.934
sg71
I20
sg72
S''
sg73
F0
sg74
F0
sS'm'
F249750
sg75
I0
sg76
g336
sg80
F20.11675
sg81
F96.560400000000001
sg82
F15433.136078200001
sg83
F0
sS'x'
F14332.958128612046
sg84
(lp377
sg101
F96.560400000000001
sg102
(lp378
S'14.644994'
p379
aS'9100'
p380
aS'1'
asg106
F514114.48000820214
sba(i__main__
Tr
p381
(dp382
g3
F5180321.4556584535
sg4
g5
sg8
I9
sg9
F25899.752356000001
sg10
F1
sg11
F0
sg12
I9223372036854775807
sg13
F3600100
sg14
I9223372036854775807
sg15
I00
sg16
F32.292465534470153
sg17
S'sig:WestRuislip:15000'
p383
sg19
F72.420299999999997
sg20
I0
sg21
I9223372036854775807
sg22
F80.466999999999999
sg23
I4
sg24
I-1
sg25
I2
sg26
F0
sS'v'
F8.4324522763204026
sg27
I930
sg28
I00
sg29
F-1
sg30
F30.356828194753451
sg31
g32
sg35
F26.822333333333333
sg36
F27358.779999999999
sg37
I00
sg38
I00
sg39
I00
sg40
I9223372036854775807
sg41
S'green'
p384
sg43
F-0.0012942624881095639
sg44
F24.741091614105244
sg45
F0
sg46
F24816.988404
sg47
g90
sS'a'
F0.74522924878090158
sg49
F1
sg50
F1595492.3247986331
sg51
F0
sg52
F0
sg53
I00
sg54
F214.60495560132574
sg55
I00
sg56
F0
sg57
F0.74522924878090158
sg58
S'WestRuislip'
p385
sg60
S'MAIN20'
p386
sg62
(lp387
S'26.803074898'
p388
aS'LEY'
p389
aS'Leyton'
p390
asg67
I00
sg68
I00
sg69
F0
sg70
F160.934
sg71
I32
sg72
S''
sg73
F0
sg74
F0
sS'm'
F249750
sg75
I0
sg76
(lp391
S'27.35878'
p392
aS'80.467'
p393
asg80
F20.11675
sg81
F72.420299999999997
sg82
F26803.074897999999
sg83
F0
sS'x'
F24741.091614105244
sg84
(lp394
sg101
F72.420299999999997
sg102
(lp395
S'24.816988404'
p396
aS'LYS+100'
p397
aS'1'
asg106
F518612.0500083518
sba(i__main__
Tr
p398
(dp399
g3
F5159805.6879184404
sg4
g5
sg8
I11
sg9
F25899.752356000001
sg10
F1
sg11
F0
sg12
I9223372036854775807
sg13
F3600100
sg14
I9223372036854775807
sg15
I00
sg16
F193.70461087718806
sg17
S'sig:WestRuislip:19900'
p400
sg19
F80.466999999999999
sg20
I0
sg21
I9223372036854775807
sg22
F64.373599999999996
sg23
I4
sg24
I-1
sg25
I3
sg26
F0
sS'v'
F20.643408907000353
sg27
I930
sg28
I00
sg29
F-1
sg30
F74.316272065201275
sg31
g32
sg35
F22.351944444444445
sg36
F34118.008000000002
sg37
I00
sg38
I01
sg39
I00
sg40
I9223372036854775807
sg41
S'green'
p401
sg43
F0.00034846115433571781
sg44
F31.896383117101255
sg45
F122.63140320075763
sg46
F32025.866000000002
sg47
g48
sS'a'
F0.00090765933616596258
sg49
F1
sg50
F4784.6594006488212
sg51
F0
sg52
F0
sg53
I00
sg54
F122.63140320075763
sg55
I00
sg56
F0
sg57
F0.00090765933616596258
sg58
S'WestRuislip'
p402
sg60
S'MAIN21'
p403
sg62
(lp404
S'32.65189926'
p405
aS'MIL'
p406
aS'Mile-End'
p407
asg67
I00
sg68
I00
sg69
F0
sg70
F160.934
sg71
I41
sg72
S''
sg73
F0
sg74
F0
sS'm'
F249750
sg75
I0
sg76
(lp408
S'34.118008'
p409
aS'64.3736'
p410
asg80
F17.881555555555554
sg81
F80.466999999999999
sg82
F32651.899260000002
sg83
F0
sS'x'
F31896.383117101253
sg84
(lp411
sg101
F80.466999999999999
sg102
(lp412
S'32.025866'
p413
aS'19900'
p414
aS'1'
asg106
F513492.54000823456
sba(i__main__
Tr
p415
(dp416
g3
F5095499.4745405829
sg4
g5
sg8
I22
sg9
F25899.752356000001
sg10
F1
sg11
F0
sg12
I9223372036854775807
sg13
F3600100
sg14
I9223372036854775807
sg15
I00
sg16
F67.948591356505815
sg17
S'sig:WestRuislip:28400'
p417
sg19
F64.373599999999996
sg20
I0
sg21
I9223372036854775807
sg22
F40.233499999999999
sg23
I3
sg24
I-1
sg25
I7
sg26
F0
sS'v'
F12.220983590317896
sg27
I930
sg28
I00
sg29
F-1
sg30
F43.995540925144425
sg31
g32
sg35
F17.881555555555554
sg36
F49889.539999999994
sg37
I00
sg38
I00
sg39
I00
sg40
I9223372036854775807
sg41
S'green'
p418
sg43
F0.00088631065645625466
sg44
F46.103970823047071
sg45
F132.85068680082065
sg46
F46281.238786000002
sg47
g48
sS'a'
F-1.1000000000000001
sg49
F1
sg50
F0
sg51
F0
sg52
F0
sg53
I00
sg54
F132.85068680082065
sg55
I01
sg56
F0
sg57
F-1.1000000000000001
sg58
S'WestRuislip'
p419
sg60
S'BRCH1'
p420
sg62
(lp421
S'46.171803666'
p422
aS'LAN'
p423
aS'Lancaster-Gate'
p424
asg67
I00
sg68
I00
sg69
F0
sg70
F160.934
sg71
I61
sg72
S''
sg73
F0
sg74
F0
sS'm'
F249750
sg75
I0
sg76
g117
sg80
F11.175972222222223
sg81
F64.373599999999996
sg82
F46171.803666
sg83
F0
sS'x'
F46103.970823047071
sg84
(lp425
sg101
F64.373599999999996
sg102
(lp426
S'46.281238786'
p427
aS'LAN+100'
p428
aS'1'
asg106
F524680.20000839722
sba(i__main__
Tr
p429
(dp430
g3
F4922995.9155172715
sg4
g176
sg8
I24
sg9
F25899.752356000001
sg10
F1
sg11
F0
sg12
I9223372036854775807
sg13
F3600100
sg14
I9223372036854775807
sg15
I00
sg16
F62.568578990894416
sg17
S'sig:Epping:BNK+100'
p431
sg19
F48.280200000000001
sg20
I0
sg21
I9223372036854775807
sg22
F80.466999999999999
sg23
I3
sg24
I-1
sg25
I7
sg26
F0
sS'v'
F11.726970915368499
sg27
I930
sg28
I00
sg29
F-1
sg30
F42.217095295326594
sg31
g180
sg35
F17.881555555555554
sg36
F36692.951999999997
sg37
I00
sg38
I00
sg39
I00
sg40
I9223372036854775807
sg41
S'green'
p432
sg43
F0.004583872070216986
sg44
F36.434146944092959
sg45
F0
sg128
F1774.1500000000001
sg46
F36605.886705999998
sg47
g90
sS'a'
F-1.1000000000000001
sg49
F1
sg50
F0
sg51
F0
sg52
F0
sg53
I00
sg54
F187.35353266782403
sg55
I01
sg56
F0
sg57
F-1.1000000000000001
sg58
S'Epping'
p433
sg60
S'BRCH2'
p434
sg62
(lp435
S'36.49661252'
p436
aS'LIV'
p437
aS'Liverpool-Street'
p438
aS'X'
asg67
I00
sg68
I00
sg69
F0
sg70
F160.934
sg71
I47
sg72
S''
sg73
F0
sg74
F0
sS'm'
F249750
sg75
I0
sg76
(lp439
S'36.692952'
p440
aS'80.467'
p441
asg80
F6.7055833333333332
sg81
F48.280200000000001
sg82
F36496.612520000002
sg83
F0
sS'x'
F36434.146944092958
sg84
(lp442
sg101
F48.280200000000001
sg102
(lp443
S'36.605886706'
p444
aS'LIV+100'
p445
aS'1'
asg106
F541003.10000791878
sba(i__main__
Tr
p446
(dp447
g3
F5042516.0779985711
sg4
g176
sg8
I36
sg9
F25899.752356000001
sg10
F1
sg11
F0
sg12
I9223372036854775807
sg13
F3600100
sg14
I9223372036854775807
sg15
I00
sg16
F193.96648395268841
sg17
S'sig:Epping:42000'
p448
sg19
F96.560400000000001
sg20
I0
sg21
I9223372036854775807
sg22
F40.233499999999999
sg23
I3
sg24
I0
sg25
I10
sg26
F0
sS'v'
F20.657355518871729
sg27
I930
sg28
I00
sg29
F-1
sg30
F74.366479867938224
sg31
g180
sg35
F26.822333333333333
sg36
F73707.772000000012
sg37
I00
sg38
I00
sg39
I00
sg40
I9223372036854775807
sg41
S'green'
p449
sg43
F0.0047907679774705208
sg44
F67.718993181699801
sg45
F405.36491613583757
sg46
F68396.949999999997
sg47
g48
sS'a'
F0.00035017623038452326
sg49
F1
sg50
F1854.3495165472634
sg51
F0
sg52
F0
sg53
I00
sg54
F405.36491613583757
sg55
I00
sg56
F0
sg57
F0.00035017623038452326
sg58
S'Epping'
p450
sg60
S'BRCH3'
p451
sg62
(lp452
S'69.130326238'
p453
aS'THB'
p454
aS'Theydon-Bois'
p455
asg67
I00
sg68
I00
sg69
F0
sg70
F160.934
sg71
I86
sg72
S'Epping'
p456
sg73
F0
sg74
F0
sS'm'
F249750
sg75
I0
sg76
g304
sg80
F11.175972222222223
sg81
F96.560400000000001
sg82
F69130.326237999994
sg83
F0
sS'x'
F67718.9931816998
sg84
(lp457
sg101
F96.560400000000001
sg102
(lp458
S'68.39695'
p459
aS'42500'
p460
aS'1'
asg106
F538931.58000785846
sba(i__main__
Tr
p461
(dp462
g3
F5132788.0283818897
sg4
g5
sg8
I33
sg9
F25899.752356000001
sg10
F1
sg11
F0
sg12
I9223372036854775807
sg13
F3600100
sg14
I9223372036854775807
sg15
I00
sg16
F192.02296756610585
sg17
S'sig:WestRuislip:40550'
p463
sg19
F96.560400000000001
sg20
I0
sg21
I9223372036854775807
sg22
F64.373599999999996
sg23
I3
sg24
I0
sg25
I11
sg26
F0
sS'v'
F20.553623856340618
sg27
I930
sg28
I00
sg29
F-1
sg30
F73.993045882826223
sg31
g32
sg35
F26.822333333333333
sg36
F72903.101999999999
sg37
I00
sg38
I00
sg39
I00
sg40
I9223372036854775807
sg41
S'green'
p464
sg43
F0.0050339795197070084
sg44
F65.381469387353434
sg45
F272.51422933501681
sg46
F65982.940000000002
sg47
g48
sS'a'
F0.0045003402519635319
sg49
F1
sg50
F23572.917560576629
sg51
F0
sg52
F0
sg53
I00
sg54
F272.51422933501681
sg55
I00
sg56
F0
sg57
F0.0045003402519635319
sg58
S'WestRuislip'
p465
sg60
S'BRCH4'
p466
sg62
(lp467
S'66.342466556'
p468
aS'NHO'
p469
aS'Northolt'
p470
asg67
I00
sg68
I00
sg69
F0
sg70
F160.934
sg71
I87
sg72
S'WestRuislip'
p471
sg73
F0
sg74
F0
sS'm'
F249750
sg75
I0
sg76
g167
sg80
F17.881555555555554
sg81
F96.560400000000001
sg82
F66342.466555999999
sg83
F0
sS'x'
F65381.469387353434
sg84
(lp472
sg101
F96.560400000000001
sg102
(lp473
S'65.98294'
p474
aS'41000'
p475
aS'1'
asg106
F516538.11000829679
sbasg101
F64.373599999999996
sg102
(lp476
S'35.888282'
p477
aS'22300'
p478
aS'1'
asg106
F513060.57000813237
sb.