(dp1
S'ncyc'
p2
I180100
sS'schedule'
p3
S'tr.txt'
p4
sS'route'
p5
S'LondonCentral/'
p6
sS'version'
p7
S'146'
p8
sS't'
F900.5
sS'minVersion'
p9
g8
sS'simID'
p10
S'3902ba72-d054-41b3-ae74-d5e49bd911bd'
p11
sS'schedOrders'
p12
(lp13
s.