(dp1
S'ncyc'
p2
I4800
sS'schedule'
p3
S'tr.txt'
p4
sS'route'
p5
S'LondonCentral/'
p6
sS'version'
p7
S'146'
p8
sS'time'
p9
F24
sS'minVersion'
p10
g8
sS'simID'
p11
S'265ba68c-442d-4332-9704-edf846ce56e1'
p12
sS'schedOrders'
p13
(lp14
s.